(dp1
S'widgets'
p2
ccopy_reg
_reconstructor
p3
(corngRegistry
WidgetCategory
p4
c__builtin__
dict
p5
(dp6
S'Normalize'
p7
(iorngRegistry
WidgetDescription
p8
(dp9
S'inputs'
p10
(lp11
(iorngSignalManager
InputSignal
p12
(dp13
S'name'
p14
S'Eset'
p15
sS'default'
p16
I0
sS'single'
p17
I2
sS'handler'
p18
S'self.process'
p19
sS'forceAllow'
p20
I0
sS'type'
p21
S'RAffyClasses.Eset'
p22
sbasS'description'
p23
S'Processes an Affybatch to an eset using RMA'
p24
sS'tags'
p25
S'Microarray'
p26
sS'outputs'
p27
(lp28
(iorngSignalManager
OutputSignal
p29
(dp30
g16
I0
sg21
S'RvarClasses.RDataFrame'
p31
sg14
S'Normalized Expression Matrix'
p32
sg20
I0
sba(iorngSignalManager
OutputSignal
p33
(dp34
g16
I0
sg21
S'RAffyClasses.RAffyBatch'
p35
sg14
S'Normalized AffyBatch'
p36
sg20
I0
sbasS'fileName'
p37
S'affyNormalize'
p38
sS'fullName'
p39
S'/usr/lib/python2.6/dist-packages/Red-R/OrangeWidgets/widgets/affyNormalize.py'
p40
sS'icon'
p41
S'icons/normalize.png'
p42
sS'category'
p43
g2
sg14
S'Normalize'
p44
sS'outputList'
p45
S"[('Normalized Expression Matrix', 'RvarClasses.RDataFrame'), ('Normalized AffyBatch', 'RAffyClasses.RAffyBatch')]"
p46
sS'inputList'
p47
S"[('Eset', 'RAffyClasses.Eset', 'self.process')]"
p48
sS'priority'
p49
S'1010'
p50
sS'contact'
p51
S''
sS'time'
p52
S'1269889389'
p53
sS'tooltipText'
p54
S'<b><b>&nbsp;Normalize</b></b><hr><b>Description:</b><br>&nbsp;&nbsp;Processes an Affybatch to an eset using RMA<hr><b>Inputs:</b><br> &nbsp;&nbsp; - Eset (RAffyClasses.Eset)<hr><b>Outputs:</b><br> &nbsp; &nbsp; - Normalized Expression Matrix (RvarClasses.RDataFrame)<br> &nbsp; &nbsp; - Normalized AffyBatch (RAffyClasses.RAffyBatch)'
p55
sbsS'multdrc'
p56
(iorngRegistry
WidgetDescription
p57
(dp58
g10
(lp59
(iorngSignalManager
InputSignal
p60
(dp61
g14
S'data'
p62
sg16
I0
sg17
I2
sg18
S'self.processdata'
p63
sg20
I0
sg21
S'RvarClasses.RVariable'
p64
sbasg23
S''
sg25
S'Dose Response'
p65
sg27
(lp66
(iorngSignalManager
OutputSignal
p67
(dp68
g16
I0
sg21
S'RvarClasses.RVariable'
p69
sg14
S'multdrc Output'
p70
sg20
I0
sbasg37
S'multdrc'
p71
sg39
S'/usr/lib/python2.6/dist-packages/Red-R/OrangeWidgets/widgets/multdrc.py'
p72
sg41
S'icons/drc.PNG'
p73
sg43
g2
sg14
S'multdrc'
p74
sg45
S"[('multdrc Output', 'RvarClasses.RVariable')]"
p75
sg47
S"[('data', 'RvarClasses.RVariable', 'self.processdata')]"
p76
sg49
S'5000'
p77
sg51
S''
sg52
S'1269889388'
p78
sg54
S'<b><b>&nbsp;multdrc</b></b><hr><b>Description:</b><br>&nbsp;&nbsp;<hr><b>Inputs:</b><br> &nbsp;&nbsp; - data (RvarClasses.RVariable)<hr><b>Outputs:</b><br> &nbsp; &nbsp; - multdrc Output (RvarClasses.RVariable)'
p79
sbsS'Write eSet'
p80
(iorngRegistry
WidgetDescription
p81
(dp82
g10
(lp83
(iorngSignalManager
InputSignal
p84
(dp85
g14
S'Affybatch'
p86
sg16
I0
sg17
I2
sg18
S'self.nothingb'
p87
sg20
I0
sg21
S'RvarClasses.RVariable'
p88
sbasg23
S'Writes an eSet to a tab delimited file.'
p89
sg25
S'Microarray'
p90
sg27
(lp91
sg37
S'writeEset'
p92
sg39
S'/usr/lib/python2.6/dist-packages/Red-R/OrangeWidgets/widgets/writeEset.py'
p93
sg41
S'icons/readcel.png'
p94
sg43
g2
sg14
S'Write eSet'
p95
sg45
S'[]'
p96
sg47
S"[('Affybatch', 'RvarClasses.RVariable', 'self.nothingb')]"
p97
sg49
S'80'
p98
sg51
S''
sg52
S'1269889389'
p99
sg54
S'<b><b>&nbsp;Write eSet</b></b><hr><b>Description:</b><br>&nbsp;&nbsp;Writes an eSet to a tab delimited file.<hr><b>Inputs:</b><br> &nbsp;&nbsp; - Affybatch (RvarClasses.RVariable)<hr><b>Outputs:</b><br> &nbsp; &nbsp; None'
p100
sbsS'Linear Model'
p101
(iorngRegistry
WidgetDescription
p102
(dp103
g10
(lp104
(iorngSignalManager
InputSignal
p105
(dp106
g14
S'data'
p107
sg16
I0
sg17
I2
sg18
S'self.processdata'
p108
sg20
I0
sg21
S'RvarClasses.RVariable'
p109
sbasg23
S"Makes a linear model given a data table and a formula.  The data table should be in a 'melted' form (Melt DF should help with this).  This model can viewed using ANOVA-LM"
p110
sg25
S'Stats, Parametric'
p111
sg27
(lp112
(iorngSignalManager
OutputSignal
p113
(dp114
g16
I0
sg21
S'RvarClasses.RVariable'
p115
sg14
S'lm Output'
p116
sg20
I0
sbasg37
S'lm'
p117
sg39
S'/usr/lib/python2.6/dist-packages/Red-R/OrangeWidgets/widgets/lm.py'
p118
sg41
S'icons/stats.png'
p119
sg43
g2
sg14
S'Linear Model'
p120
sg45
S"[('lm Output', 'RvarClasses.RVariable')]"
p121
sg47
S"[('data', 'RvarClasses.RVariable', 'self.processdata')]"
p122
sg49
g77
sg51
S''
sg52
S'1269889388'
p123
sg54
S"<b><b>&nbsp;Linear Model</b></b><hr><b>Description:</b><br>&nbsp;&nbsp;Makes a linear model given a data table and a formula.  The data table should be in a 'melted' form (Melt DF should help with this).  This model can viewed using ANOVA-LM<hr><b>Inputs:</b><br> &nbsp;&nbsp; - data (RvarClasses.RVariable)<hr><b>Outputs:</b><br> &nbsp; &nbsp; - lm Output (RvarClasses.RVariable)"
p124
sbsS'Pairwise T-Test'
p125
(iorngRegistry
WidgetDescription
p126
(dp127
g10
(lp128
(iorngSignalManager
InputSignal
p129
(dp130
g14
S'R Data Frame'
p131
sg16
I0
sg17
I2
sg18
S'self.process'
p132
sg20
I0
sg21
S'RvarClasses.RDataFrame'
p133
sbasg23
S'This widget performs pairwise t-tests on the supplied samples.  This is also effective at performing t-tests on two samples if supplied.  Data should be supplied in the form of a two columned table with one column representing values and the other the groupings.  Use of Melt DF and Column Selector may be helpful in transforming your data.'
p134
sg25
S'Parametric, Stats'
p135
sg27
(lp136
(iorngSignalManager
OutputSignal
p137
(dp138
g16
I0
sg21
S'RvarClasses.RVariable'
p139
sg14
S'pairwise.t.test Output'
p140
sg20
I0
sbasg37
S'pairwise_t_test'
p141
sg39
S'/usr/lib/python2.6/dist-packages/Red-R/OrangeWidgets/widgets/pairwise_t_test.py'
p142
sg41
S'icons/stats.png'
p143
sg43
g2
sg14
S'Pairwise T-Test'
p144
sg45
S"[('pairwise.t.test Output', 'RvarClasses.RVariable')]"
p145
sg47
S"[('R Data Frame', 'RvarClasses.RDataFrame', 'self.process')]"
p146
sg49
g77
sg51
S''
sg52
S'1269889389'
p147
sg54
S'<b><b>&nbsp;Pairwise T-Test</b></b><hr><b>Description:</b><br>&nbsp;&nbsp;This widget performs pairwise t-tests on the supplied samples.  This is also effective at performing t-tests on two samples if supplied.  Data should be supplied in the form of a two columned table with one column representing values and the other the groupings.  Use of Melt DF and Column Selector may be helpful in transforming your data.<hr><b>Inputs:</b><br> &nbsp;&nbsp; - R Data Frame (RvarClasses.RDataFrame)<hr><b>Outputs:</b><br> &nbsp; &nbsp; - pairwise.t.test Output (RvarClasses.RVariable)'
p148
sbsS'Dummy'
p149
(iorngRegistry
WidgetDescription
p150
(dp151
g10
(lp152
sg23
S''
sg25
S'Special'
p153
sg27
(lp154
sg37
S'dummy'
p155
sg39
S'/usr/lib/python2.6/dist-packages/Red-R/OrangeWidgets/widgets/dummy.py'
p156
sg41
S'icons/RExecutor.PNG'
p157
sg43
g2
sg14
S'Dummy'
p158
sg45
S'[]'
p159
sg47
S'[]'
p160
sg49
S'4010'
p161
sg51
S''
sg52
S'1269889388'
p162
sg54
S'<b><b>&nbsp;Dummy</b></b><hr><b>Description:</b><br>&nbsp;&nbsp;<hr><b>Inputs:</b><br> &nbsp;&nbsp; None<hr><b>Outputs:</b><br> &nbsp; &nbsp; None'
p163
sbsS'pamr.train'
p164
(iorngRegistry
WidgetDescription
p165
(dp166
g10
(lp167
(iorngSignalManager
InputSignal
p168
(dp169
g14
S'data'
p170
sg16
I0
sg17
I2
sg18
S'self.processdata'
p171
sg20
I0
sg21
S'RvarClasses.RVariable'
p172
sba(iorngSignalManager
InputSignal
p173
(dp174
g14
S'gene_subset'
p175
sg16
I0
sg17
I2
sg18
S'self.processgene_subset'
p176
sg20
I0
sg21
g172
sbasg23
S''
sg25
S'Prototypes'
p177
sg27
(lp178
(iorngSignalManager
OutputSignal
p179
(dp180
g16
I0
sg21
S'RvarClasses.RVariable'
p181
sg14
S'pamr.train Output'
p182
sg20
I0
sbasg37
S'pamr_train'
p183
sg39
S'/usr/lib/python2.6/dist-packages/Red-R/OrangeWidgets/widgets/pamr_train.py'
p184
sg41
S'icons/Unknown.png'
p185
sg43
g2
sg14
S'pamr.train'
p186
sg45
S"[('pamr.train Output', 'RvarClasses.RVariable')]"
p187
sg47
S"[('data', 'RvarClasses.RVariable', 'self.processdata'), ('gene_subset', 'RvarClasses.RVariable', 'self.processgene_subset')]"
p188
sg49
g77
sg51
S''
sg52
S'1269889388'
p189
sg54
S'<b><b>&nbsp;pamr.train</b></b><hr><b>Description:</b><br>&nbsp;&nbsp;<hr><b>Inputs:</b><br> &nbsp;&nbsp; - data (RvarClasses.RVariable)<br> &nbsp;&nbsp; - gene_subset (RvarClasses.RVariable)<hr><b>Outputs:</b><br> &nbsp; &nbsp; - pamr.train Output (RvarClasses.RVariable)'
p190
sbsS'Survival Difference'
p191
(iorngRegistry
WidgetDescription
p192
(dp193
g10
(lp194
(iorngSignalManager
InputSignal
p195
(dp196
g14
S'data'
p197
sg16
I0
sg17
I2
sg18
S'self.processdata'
p198
sg20
I0
sg21
S'RvarClasses.RVariable'
p199
sbasg23
S'Calculates the survival differece between groups given a data table with event times, event status, and groupings.  This can perform complex comparisons including interactions.  The parameter rho can be set between 0 and 1 with With rho = 0 this is the log-rank or Mantel-Haenszel test, and with rho = 1 it is equivalent to the Peto & Peto modification of the Gehan-Wilcoxon test.'
p200
sg25
S'Survival'
p201
sg27
(lp202
(iorngSignalManager
OutputSignal
p203
(dp204
g16
I0
sg21
S'SurvivalClasses.SurvFit'
p205
sg14
S'survdiff Output'
p206
sg20
I0
sbasg37
S'survdiff'
p207
sg39
S'/usr/lib/python2.6/dist-packages/Red-R/OrangeWidgets/widgets/survdiff.py'
p208
sg41
S'icons/RExecutor.png'
p209
sg43
g2
sg14
S'Survival Difference'
p210
sg45
S"[('survdiff Output', 'SurvivalClasses.SurvFit')]"
p211
sg47
S"[('data', 'RvarClasses.RVariable', 'self.processdata')]"
p212
sg49
g77
sg51
S''
sg52
S'1269889388'
p213
sg54
S'<b><b>&nbsp;Survival Difference</b></b><hr><b>Description:</b><br>&nbsp;&nbsp;Calculates the survival differece between groups given a data table with event times, event status, and groupings.  This can perform complex comparisons including interactions.  The parameter rho can be set between 0 and 1 with With rho = 0 this is the log-rank or Mantel-Haenszel test, and with rho = 1 it is equivalent to the Peto & Peto modification of the Gehan-Wilcoxon test.<hr><b>Inputs:</b><br> &nbsp;&nbsp; - data (RvarClasses.RVariable)<hr><b>Outputs:</b><br> &nbsp; &nbsp; - survdiff Output (SurvivalClasses.SurvFit)'
p214
sbsS'barChart'
p215
(iorngRegistry
WidgetDescription
p216
(dp217
g10
(lp218
(iorngSignalManager
InputSignal
p219
(dp220
g14
S'x'
sg16
I0
sg17
I2
sg18
S'self.processx'
p221
sg20
I0
sg21
S'RvarClasses.RVariable'
p222
sbasg23
S'Still a bit of an experimental widget, this widget plots data from the Get Symbol widget.'
p223
sg25
S'Finance'
p224
sg27
(lp225
sg37
S'barChart'
p226
sg39
S'/usr/lib/python2.6/dist-packages/Red-R/OrangeWidgets/widgets/barChart.py'
p227
sg41
S'icons/Finance.PNG'
p228
sg43
g2
sg14
S'barChart'
p229
sg45
g96
sg47
S"[('x', 'RvarClasses.RVariable', 'self.processx')]"
p230
sg49
g77
sg51
S''
sg52
S'1269889389'
p231
sg54
S'<b><b>&nbsp;barChart</b></b><hr><b>Description:</b><br>&nbsp;&nbsp;Still a bit of an experimental widget, this widget plots data from the Get Symbol widget.<hr><b>Inputs:</b><br> &nbsp;&nbsp; - x (RvarClasses.RVariable)<hr><b>Outputs:</b><br> &nbsp; &nbsp; None'
p232
sbsS'List Selector'
p233
(iorngRegistry
WidgetDescription
p234
(dp235
g10
(lp236
(iorngSignalManager
InputSignal
p237
(dp238
g14
S'R List'
p239
sg16
I0
sg17
I2
sg18
S'self.process'
p240
sg20
I0
sg21
S'RvarClasses.RList'
p241
sbasg23
S'Allows viewing of a list and picks parts of a list and sends them.'
p242
sg25
S'Data Exploration and Visualization'
p243
sg27
(lp244
(iorngSignalManager
OutputSignal
p245
(dp246
g16
I0
sg21
S'RvarClasses.RDataFrame'
p247
sg14
S'R Data Frame'
p248
sg20
I0
sba(iorngSignalManager
OutputSignal
p249
(dp250
g16
I0
sg21
S'RvarClasses.RVector'
p251
sg14
S'R Vector'
p252
sg20
I0
sba(iorngSignalManager
OutputSignal
p253
(dp254
g16
I0
sg21
S'RvarClasses.RList'
p255
sg14
S'R List'
p256
sg20
I0
sbasg37
S'ListSelector'
p257
sg39
S'/usr/lib/python2.6/dist-packages/Red-R/OrangeWidgets/widgets/ListSelector.py'
p258
sg41
S'icons/rexecutor.png'
p259
sg43
g2
sg14
S'List Selector'
p260
sg45
S"[('R Data Frame', 'RvarClasses.RDataFrame'), ('R Vector', 'RvarClasses.RVector'), ('R List', 'RvarClasses.RList')]"
p261
sg47
S"[('R List', 'RvarClasses.RList', 'self.process')]"
p262
sg49
S'3010'
p263
sg51
S''
sg52
S'1269889389'
p264
sg54
S'<b><b>&nbsp;List Selector</b></b><hr><b>Description:</b><br>&nbsp;&nbsp;Allows viewing of a list and picks parts of a list and sends them.<hr><b>Inputs:</b><br> &nbsp;&nbsp; - R List (RvarClasses.RList)<hr><b>Outputs:</b><br> &nbsp; &nbsp; - R Data Frame (RvarClasses.RDataFrame)<br> &nbsp; &nbsp; - R Vector (RvarClasses.RVector)<br> &nbsp; &nbsp; - R List (RvarClasses.RList)'
p265
sbsS'Heatmap'
p266
(iorngRegistry
WidgetDescription
p267
(dp268
g10
(lp269
(iorngSignalManager
InputSignal
p270
(dp271
g14
S'Expression Matrix'
p272
sg16
I0
sg17
I2
sg18
S'self.processMatrix'
p273
sg20
I0
sg21
S'RvarClasses.RDataFrame'
p274
sbasg23
S'Makes heatmaps of data.  This data should be in the form of a data table and should contain only numeric data, no text.  Thought heatmap was designed to work with the Bioconductor package it is able to show any numeric data as a heatmap.'
p275
sg25
S'Plotting'
p276
sg27
(lp277
(iorngSignalManager
OutputSignal
p278
(dp279
g16
I0
sg21
S'RvarClasses.RList'
p280
sg14
S'Cluster Subset List'
p281
sg20
I0
sbasg37
S'Heatmap'
p282
sg39
S'/usr/lib/python2.6/dist-packages/Red-R/OrangeWidgets/widgets/Heatmap.py'
p283
sg41
S'icons/heatmap.png'
p284
sg43
g2
sg14
S'Heatmap'
p285
sg45
S"[('Cluster Subset List', 'RvarClasses.RList')]"
p286
sg47
S"[('Expression Matrix', 'RvarClasses.RDataFrame', 'self.processMatrix')]"
p287
sg49
S'2040'
p288
sg51
S''
sg52
S'1269889389'
p289
sg54
S'<b><b>&nbsp;Heatmap</b></b><hr><b>Description:</b><br>&nbsp;&nbsp;Makes heatmaps of data.  This data should be in the form of a data table and should contain only numeric data, no text.  Thought heatmap was designed to work with the Bioconductor package it is able to show any numeric data as a heatmap.<hr><b>Inputs:</b><br> &nbsp;&nbsp; - Expression Matrix (RvarClasses.RDataFrame)<hr><b>Outputs:</b><br> &nbsp; &nbsp; - Cluster Subset List (RvarClasses.RList)'
p290
sbsS'Principal Component'
p291
(iorngRegistry
WidgetDescription
p292
(dp293
g10
(lp294
(iorngSignalManager
InputSignal
p295
(dp296
g14
S'x'
sg16
I0
sg17
I2
sg18
S'self.processx'
p297
sg20
I0
sg21
S'RvarClasses.RVariable'
p298
sbasg23
S'This widget performs principal component analysis on a data table containing numeric data.  The entire data fit is returned in the prcomp Output channel and the fit to the principal components is returned from the Scaled Data channel.  To view the prinicpal components graphically you may want to select the desired principal components and pass that on to a plotting widget.'
p299
sg25
S'Parametric'
p300
sg27
(lp301
(iorngSignalManager
OutputSignal
p302
(dp303
g16
I0
sg21
S'RvarClasses.RVariable'
p304
sg14
S'prcomp Output'
p305
sg20
I0
sba(iorngSignalManager
OutputSignal
p306
(dp307
g16
I0
sg21
S'RvarClasses.RDataFrame'
p308
sg14
S'Scaled Data'
p309
sg20
I0
sbasg37
S'prcomp'
p310
sg39
S'/usr/lib/python2.6/dist-packages/Red-R/OrangeWidgets/widgets/prcomp.py'
p311
sg41
S'icons/stats.png'
p312
sg43
g2
sg14
S'Principal Component'
p313
sg45
S"[('prcomp Output', 'RvarClasses.RVariable'), ('Scaled Data', 'RvarClasses.RDataFrame')]"
p314
sg47
S"[('x', 'RvarClasses.RVariable', 'self.processx')]"
p315
sg49
g77
sg51
S''
sg52
S'1269889388'
p316
sg54
S'<b><b>&nbsp;Principal Component</b></b><hr><b>Description:</b><br>&nbsp;&nbsp;This widget performs principal component analysis on a data table containing numeric data.  The entire data fit is returned in the prcomp Output channel and the fit to the principal components is returned from the Scaled Data channel.  To view the prinicpal components graphically you may want to select the desired principal components and pass that on to a plotting widget.<hr><b>Inputs:</b><br> &nbsp;&nbsp; - x (RvarClasses.RVariable)<hr><b>Outputs:</b><br> &nbsp; &nbsp; - prcomp Output (RvarClasses.RVariable)<br> &nbsp; &nbsp; - Scaled Data (RvarClasses.RDataFrame)'
p317
sbsS'Intersect'
p318
(iorngRegistry
WidgetDescription
p319
(dp320
g10
(lp321
(iorngSignalManager
InputSignal
p322
(dp323
g14
S'y'
sg16
I0
sg17
I2
sg18
S'self.processy'
p324
sg20
I0
sg21
S'RvarClasses.RVector'
p325
sba(iorngSignalManager
InputSignal
p326
(dp327
g14
S'x'
sg16
I0
sg17
I2
sg18
S'self.processx'
p328
sg20
I0
sg21
g325
sbasg23
S'Shows data in a spreadsheet.'
p329
sg25
S'Data Manipulation'
p330
sg27
(lp331
(iorngSignalManager
OutputSignal
p332
(dp333
g16
I0
sg21
S'RvarClasses.RVector'
p334
sg14
S'intersect Output'
p335
sg20
I0
sbasg37
S'intersect'
p336
sg39
S'/usr/lib/python2.6/dist-packages/Red-R/OrangeWidgets/widgets/intersect.py'
p337
sg41
S'icons/datatable.png'
p338
sg43
g2
sg14
S'Intersect'
p339
sg45
S"[('intersect Output', 'RvarClasses.RVector')]"
p340
sg47
S"[('y', 'RvarClasses.RVector', 'self.processy'), ('x', 'RvarClasses.RVector', 'self.processx')]"
p341
sg49
g77
sg51
S''
sg52
S'1269889389'
p342
sg54
S'<b><b>&nbsp;Intersect</b></b><hr><b>Description:</b><br>&nbsp;&nbsp;Shows data in a spreadsheet.<hr><b>Inputs:</b><br> &nbsp;&nbsp; - y (RvarClasses.RVector)<br> &nbsp;&nbsp; - x (RvarClasses.RVector)<hr><b>Outputs:</b><br> &nbsp; &nbsp; - intersect Output (RvarClasses.RVector)'
p343
sbsS'Limma Decide'
p344
(iorngRegistry
WidgetDescription
p345
(dp346
g10
(lp347
(iorngSignalManager
InputSignal
p348
(dp349
g14
S'eBayes fit'
p350
sg16
I0
sg17
I2
sg18
S'self.process'
p351
sg20
I0
sg21
S'RvarClasses.RVariable'
p352
sba(iorngSignalManager
InputSignal
p353
(dp354
g14
S'NormalizedAffybatch'
p355
sg16
I0
sg17
I2
sg18
S'self.processeset'
p356
sg20
I0
sg21
S'RvarClasses.RDataFrame'
p357
sbasg23
S'Calculates differential expression of genes from an eSet object'
p358
sg25
S'Microarray'
p359
sg27
(lp360
(iorngSignalManager
OutputSignal
p361
(dp362
g16
I0
sg21
S'RvarClasses.RDataFrame'
p363
sg14
S'Expression Subset'
p364
sg20
I0
sba(iorngSignalManager
OutputSignal
p365
(dp366
g16
I0
sg21
g363
sg14
S'Gene Change Table'
p367
sg20
I0
sbasg37
S'limmaDecide'
p368
sg39
S'/usr/lib/python2.6/dist-packages/Red-R/OrangeWidgets/widgets/limmaDecide.py'
p369
sg41
S'icons/readcel.png'
p370
sg43
g2
sg14
S'Limma Decide'
p371
sg45
S"[('Expression Subset', 'RvarClasses.RDataFrame'), ('Gene Change Table', 'RvarClasses.RDataFrame')]"
p372
sg47
S"[('eBayes fit', 'RvarClasses.RVariable', 'self.process'), ('NormalizedAffybatch', 'RvarClasses.RDataFrame', 'self.processeset')]"
p373
sg49
S'2030'
p374
sg51
S''
sg52
S'1269889388'
p375
sg54
S'<b><b>&nbsp;Limma Decide</b></b><hr><b>Description:</b><br>&nbsp;&nbsp;Calculates differential expression of genes from an eSet object<hr><b>Inputs:</b><br> &nbsp;&nbsp; - eBayes fit (RvarClasses.RVariable)<br> &nbsp;&nbsp; - NormalizedAffybatch (RvarClasses.RDataFrame)<hr><b>Outputs:</b><br> &nbsp; &nbsp; - Expression Subset (RvarClasses.RDataFrame)<br> &nbsp; &nbsp; - Gene Change Table (RvarClasses.RDataFrame)'
p376
sbsS'pamr.from.excel'
p377
(iorngRegistry
WidgetDescription
p378
(dp379
g10
(lp380
sg23
S''
sg25
g177
sg27
(lp381
(iorngSignalManager
OutputSignal
p382
(dp383
g16
I0
sg21
S'RvarClasses.RVariable'
p384
sg14
S'pamr.from.excel Output'
p385
sg20
I0
sbasg37
S'pamr_from_excel'
p386
sg39
S'/usr/lib/python2.6/dist-packages/Red-R/OrangeWidgets/widgets/pamr_from_excel.py'
p387
sg41
g185
sg43
g2
sg14
S'pamr.from.excel'
p388
sg45
S"[('pamr.from.excel Output', 'RvarClasses.RVariable')]"
p389
sg47
g96
sg49
g77
sg51
S''
sg52
S'1269889389'
p390
sg54
S'<b><b>&nbsp;pamr.from.excel</b></b><hr><b>Description:</b><br>&nbsp;&nbsp;<hr><b>Inputs:</b><br> &nbsp;&nbsp; None<hr><b>Outputs:</b><br> &nbsp; &nbsp; - pamr.from.excel Output (RvarClasses.RVariable)'
p391
sbsS'Read CEL Files'
p392
(iorngRegistry
WidgetDescription
p393
(dp394
g10
(lp395
sg23
S'Allows the user to pick CEL files either individually or through a .txt file and outputs the eSet as an R.object'
p396
sg25
S'Microarray'
p397
sg27
(lp398
(iorngSignalManager
OutputSignal
p399
(dp400
g16
I0
sg21
S'RvarClasses.RDataFrame'
p401
sg14
S'Expression Matrix'
p402
sg20
I0
sba(iorngSignalManager
OutputSignal
p403
(dp404
g16
I0
sg21
S'RAffyClasses.Eset'
p405
sg14
S'Eset'
p406
sg20
I0
sbasg37
S'ReadCEL'
p407
sg39
S'/usr/lib/python2.6/dist-packages/Red-R/OrangeWidgets/widgets/ReadCEL.py'
p408
sg41
S'icons/readcel.png'
p409
sg43
g2
sg14
S'Read CEL Files'
p410
sg45
S"[('Expression Matrix', 'RvarClasses.RDataFrame'), ('Eset', 'RAffyClasses.Eset')]"
p411
sg47
g96
sg49
S'10'
p412
sg51
S''
sg52
S'1269889389'
p413
sg54
S'<b><b>&nbsp;Read CEL Files</b></b><hr><b>Description:</b><br>&nbsp;&nbsp;Allows the user to pick CEL files either individually or through a .txt file and outputs the eSet as an R.object<hr><b>Inputs:</b><br> &nbsp;&nbsp; None<hr><b>Outputs:</b><br> &nbsp; &nbsp; - Expression Matrix (RvarClasses.RDataFrame)<br> &nbsp; &nbsp; - Eset (RAffyClasses.Eset)'
p414
sbsS'Wilcoxon Test'
p415
(iorngRegistry
WidgetDescription
p416
(dp417
g10
(lp418
(iorngSignalManager
InputSignal
p419
(dp420
g14
S'x'
sg16
I0
sg17
I2
sg18
S'self.processx'
p421
sg20
I0
sg21
S'RvarClasses.RVector'
p422
sba(iorngSignalManager
InputSignal
p423
(dp424
g14
S'y'
sg16
I0
sg17
I2
sg18
S'self.processy'
p425
sg20
I0
sg21
g422
sbasg23
S"Performs one and two sample Wilcoxon tests on vectors of data, the latter is also known as 'Mann-Whitney' test.  This widget accepts 'vectors' which may be created by the Row or Column selectors or the List selector widget."
p426
sg25
S'Non Parametric'
p427
sg27
(lp428
(iorngSignalManager
OutputSignal
p429
(dp430
g16
I0
sg21
S'RvarClasses.RVariable'
p431
sg14
S'wilcox.test Output'
p432
sg20
I0
sbasg37
S'wilcox_test'
p433
sg39
S'/usr/lib/python2.6/dist-packages/Red-R/OrangeWidgets/widgets/wilcox_test.py'
p434
sg41
S'icons/stats.png'
p435
sg43
g2
sg14
S'Wilcoxon Test'
p436
sg45
S"[('wilcox.test Output', 'RvarClasses.RVariable')]"
p437
sg47
S"[('x', 'RvarClasses.RVector', 'self.processx'), ('y', 'RvarClasses.RVector', 'self.processy')]"
p438
sg49
g77
sg51
S''
sg52
S'1269889388'
p439
sg54
S"<b><b>&nbsp;Wilcoxon Test</b></b><hr><b>Description:</b><br>&nbsp;&nbsp;Performs one and two sample Wilcoxon tests on vectors of data, the latter is also known as 'Mann-Whitney' test.  This widget accepts 'vectors' which may be created by the Row or Column selectors or the List selector widget.<hr><b>Inputs:</b><br> &nbsp;&nbsp; - x (RvarClasses.RVector)<br> &nbsp;&nbsp; - y (RvarClasses.RVector)<hr><b>Outputs:</b><br> &nbsp; &nbsp; - wilcox.test Output (RvarClasses.RVariable)"
p440
sbsS'Read Files'
p441
(iorngRegistry
WidgetDescription
p442
(dp443
g10
(lp444
sg23
S'Reads files from a text file and brings them into RedR.  These files should be like a table and should have values that are separated either by a tab, space, or comma.  You can use the scan feature to scan a small part of your data and make sure that it is in the correct format.  You can also set a column to represent the row names of your data.  This is encouraged if you have row names as some widgets rely on row names to help them function.'
p445
sg25
S'Data Input'
p446
sg27
(lp447
(iorngSignalManager
OutputSignal
p448
(dp449
g16
I0
sg21
S'RvarClasses.RDataFrame'
p450
sg14
S'data.frame'
p451
sg20
I0
sbasg37
S'readFile'
p452
sg39
S'/usr/lib/python2.6/dist-packages/Red-R/OrangeWidgets/widgets/readFile.py'
p453
sg41
S'icons/readfile.png'
p454
sg43
g2
sg14
S'Read Files'
p455
sg45
S"[('data.frame', 'RvarClasses.RDataFrame')]"
p456
sg47
g96
sg49
S'10'
p457
sg51
S''
sg52
S'1269889389'
p458
sg54
S'<b><b>&nbsp;Read Files</b></b><hr><b>Description:</b><br>&nbsp;&nbsp;Reads files from a text file and brings them into RedR.  These files should be like a table and should have values that are separated either by a tab, space, or comma.  You can use the scan feature to scan a small part of your data and make sure that it is in the correct format.  You can also set a column to represent the row names of your data.  This is encouraged if you have row names as some widgets rely on row names to help them function.<hr><b>Inputs:</b><br> &nbsp;&nbsp; None<hr><b>Outputs:</b><br> &nbsp; &nbsp; - data.frame (RvarClasses.RDataFrame)'
p459
sbsS'Generic Plot'
p460
(iorngRegistry
WidgetDescription
p461
(dp462
g10
(lp463
(iorngSignalManager
InputSignal
p464
(dp465
g14
S'x'
sg16
I0
sg17
I2
sg18
S'self.processx'
p466
sg20
I0
sg21
S'RvarClasses.RVariable'
p467
sbasg23
S'Generic plot is the basis of most RedR plotting.  This accepts fits, data tables, or other RedR outputs and attempts to plot them.  However, there is no guarantee that your data will plot correctly.'
p468
sg25
S'Plotting'
p469
sg27
(lp470
sg37
S'plot'
p471
sg39
S'/usr/lib/python2.6/dist-packages/Red-R/OrangeWidgets/widgets/plot.py'
p472
sg41
S'icons/plot.PNG'
p473
sg43
g2
sg14
S'Generic Plot'
p474
sg45
g96
sg47
S"[('x', 'RvarClasses.RVariable', 'self.processx')]"
p475
sg49
g77
sg51
S''
sg52
S'1269889389'
p476
sg54
S'<b><b>&nbsp;Generic Plot</b></b><hr><b>Description:</b><br>&nbsp;&nbsp;Generic plot is the basis of most RedR plotting.  This accepts fits, data tables, or other RedR outputs and attempts to plot them.  However, there is no guarantee that your data will plot correctly.<hr><b>Inputs:</b><br> &nbsp;&nbsp; - x (RvarClasses.RVariable)<hr><b>Outputs:</b><br> &nbsp; &nbsp; None'
p477
sbsS'getGEO'
p478
(iorngRegistry
WidgetDescription
p479
(dp480
g10
(lp481
sg23
S'Gets GEO data and brings it into the RedR session.  May have problems if a very large dataset is imported'
p482
sg25
S'Bioinformatics'
p483
sg27
(lp484
(iorngSignalManager
OutputSignal
p485
(dp486
g16
I0
sg21
S'RvarClasses.RVariable'
p487
sg14
S'getGEO Output'
p488
sg20
I0
sbasg37
S'getGEO'
p489
sg39
S'/usr/lib/python2.6/dist-packages/Red-R/OrangeWidgets/widgets/getGEO.py'
p490
sg41
S'icons/readcel.png'
p491
sg43
g2
sg14
S'getGEO'
p492
sg45
S"[('getGEO Output', 'RvarClasses.RVariable')]"
p493
sg47
g96
sg49
g77
sg51
S''
sg52
S'1269889388'
p494
sg54
S'<b><b>&nbsp;getGEO</b></b><hr><b>Description:</b><br>&nbsp;&nbsp;Gets GEO data and brings it into the RedR session.  May have problems if a very large dataset is imported<hr><b>Inputs:</b><br> &nbsp;&nbsp; None<hr><b>Outputs:</b><br> &nbsp; &nbsp; - getGEO Output (RvarClasses.RVariable)'
p495
sbsS'Plot Affy Image'
p496
(iorngRegistry
WidgetDescription
p497
(dp498
g10
(lp499
(iorngSignalManager
InputSignal
p500
(dp501
g14
S'Affybatch'
p502
sg16
I0
sg17
I2
sg18
S'self.init'
p503
sg20
I0
sg21
S'RAffyClasses.Eset'
p504
sbasg23
S'Obtains an affybatch and plots the images of the files'
p505
sg25
S'Microarray'
p506
sg27
(lp507
sg37
S'plotAffy'
p508
sg39
S'/usr/lib/python2.6/dist-packages/Red-R/OrangeWidgets/widgets/plotAffy.py'
p509
sg41
S'icons/plotaffy.png'
p510
sg43
g2
sg14
S'Plot Affy Image'
p511
sg45
g96
sg47
S"[('Affybatch', 'RAffyClasses.Eset', 'self.init')]"
p512
sg49
S'70'
p513
sg51
S''
sg52
S'1269889389'
p514
sg54
S'<b><b>&nbsp;Plot Affy Image</b></b><hr><b>Description:</b><br>&nbsp;&nbsp;Obtains an affybatch and plots the images of the files<hr><b>Inputs:</b><br> &nbsp;&nbsp; - Affybatch (RAffyClasses.Eset)<hr><b>Outputs:</b><br> &nbsp; &nbsp; None'
p515
sbsS'Kruskal'
p516
(iorngRegistry
WidgetDescription
p517
(dp518
g10
(lp519
(iorngSignalManager
InputSignal
p520
(dp521
g14
S'data'
p522
sg16
I0
sg17
I2
sg18
S'self.processdata'
p523
sg20
I0
sg21
S'RvarClasses.RVariable'
p524
sbasg23
S'Performs the Kruskal Walis test on data.'
p525
sg25
S'Non Parametric'
p526
sg27
(lp527
sg37
S'kruskal_test'
p528
sg39
S'/usr/lib/python2.6/dist-packages/Red-R/OrangeWidgets/widgets/kruskal_test.py'
p529
sg41
S'icons/stats.png'
p530
sg43
g2
sg14
S'Kruskal'
p531
sg45
g96
sg47
S"[('data', 'RvarClasses.RVariable', 'self.processdata')]"
p532
sg49
g77
sg51
S''
sg52
S'1269889389'
p533
sg54
S'<b><b>&nbsp;Kruskal</b></b><hr><b>Description:</b><br>&nbsp;&nbsp;Performs the Kruskal Walis test on data.<hr><b>Inputs:</b><br> &nbsp;&nbsp; - data (RvarClasses.RVariable)<hr><b>Outputs:</b><br> &nbsp; &nbsp; None'
p534
sbsS'Transpose'
p535
(iorngRegistry
WidgetDescription
p536
(dp537
g10
(lp538
(iorngSignalManager
InputSignal
p539
(dp540
g14
S'x'
sg16
I0
sg17
I2
sg18
S'self.processx'
p541
sg20
I0
sg21
S'RvarClasses.RDataFrame'
p542
sbasg23
S'Transposes a data table and sends.'
p543
sg25
S'Data Manipulation'
p544
sg27
(lp545
(iorngSignalManager
OutputSignal
p546
(dp547
g16
I0
sg21
S'RvarClasses.RDataFrame'
p548
sg14
S't Output'
p549
sg20
I0
sbasg37
S't'
sg39
S'/usr/lib/python2.6/dist-packages/Red-R/OrangeWidgets/widgets/t.py'
p550
sg41
S'icons/rexecutor.png'
p551
sg43
g2
sg14
S'Transpose'
p552
sg45
S"[('t Output', 'RvarClasses.RDataFrame')]"
p553
sg47
S"[('x', 'RvarClasses.RDataFrame', 'self.processx')]"
p554
sg49
S'2040'
p555
sg51
S''
sg52
S'1269889388'
p556
sg54
S'<b><b>&nbsp;Transpose</b></b><hr><b>Description:</b><br>&nbsp;&nbsp;Transposes a data table and sends.<hr><b>Inputs:</b><br> &nbsp;&nbsp; - x (RvarClasses.RDataFrame)<hr><b>Outputs:</b><br> &nbsp; &nbsp; - t Output (RvarClasses.RDataFrame)'
p557
sbsS'GDS2eSet'
p558
(iorngRegistry
WidgetDescription
p559
(dp560
g10
(lp561
(iorngSignalManager
InputSignal
p562
(dp563
g14
S'GDS'
p564
sg16
I0
sg17
I2
sg18
S'self.processGDS'
p565
sg20
I0
sg21
S'RvarClasses.RVariable'
p566
sbasg23
S''
sg25
g177
sg27
(lp567
(iorngSignalManager
OutputSignal
p568
(dp569
g16
I0
sg21
S'RvarClasses.RVariable'
p570
sg14
S'GDS2eSet Output'
p571
sg20
I0
sbasg37
S'GDS2eSet'
p572
sg39
S'/usr/lib/python2.6/dist-packages/Red-R/OrangeWidgets/widgets/GDS2eSet.py'
p573
sg41
g185
sg43
g2
sg14
S'GDS2eSet'
p574
sg45
S"[('GDS2eSet Output', 'RvarClasses.RVariable')]"
p575
sg47
S"[('GDS', 'RvarClasses.RVariable', 'self.processGDS')]"
p576
sg49
g77
sg51
S''
sg52
S'1269889389'
p577
sg54
S'<b><b>&nbsp;GDS2eSet</b></b><hr><b>Description:</b><br>&nbsp;&nbsp;<hr><b>Inputs:</b><br> &nbsp;&nbsp; - GDS (RvarClasses.RVariable)<hr><b>Outputs:</b><br> &nbsp; &nbsp; - GDS2eSet Output (RvarClasses.RVariable)'
p578
sbsS'Histogram'
p579
(iorngRegistry
WidgetDescription
p580
(dp581
g10
(lp582
(iorngSignalManager
InputSignal
p583
(dp584
g14
S'x'
sg16
I0
sg17
I2
sg18
S'self.processx'
p585
sg20
I0
sg21
S'RvarClasses.RVariable'
p586
sbasg23
S"Makes a histogram of data.  This data should be in the form of a single 'vector'.  Use of the Row of Column selectors or perhaps the list selector may be helpful in this."
p587
sg25
S'Plotting'
p588
sg27
(lp589
sg37
S'hist'
p590
sg39
S'/usr/lib/python2.6/dist-packages/Red-R/OrangeWidgets/widgets/hist.py'
p591
sg41
S'icons/histogram.png'
p592
sg43
g2
sg14
S'Histogram'
p593
sg45
g96
sg47
S"[('x', 'RvarClasses.RVariable', 'self.processx')]"
p594
sg49
g77
sg51
S''
sg52
S'1269889389'
p595
sg54
S"<b><b>&nbsp;Histogram</b></b><hr><b>Description:</b><br>&nbsp;&nbsp;Makes a histogram of data.  This data should be in the form of a single 'vector'.  Use of the Row of Column selectors or perhaps the list selector may be helpful in this.<hr><b>Inputs:</b><br> &nbsp;&nbsp; - x (RvarClasses.RVariable)<hr><b>Outputs:</b><br> &nbsp; &nbsp; None"
p596
sbsS'Present calls with panp'
p597
(iorngRegistry
WidgetDescription
p598
(dp599
g10
(lp600
(iorngSignalManager
InputSignal
p601
(dp602
g14
S'Normalized Affybatch'
p603
sg16
I0
sg17
I2
sg18
S'self.process'
p604
sg20
I0
sg21
S'RAffyClasses.RAffyBatch'
p605
sbasg23
S'Calculates differential expression of genes from an eSet object'
p606
sg25
S'Microarray'
p607
sg27
(lp608
(iorngSignalManager
OutputSignal
p609
(dp610
g16
I0
sg21
S'RvarClasses.RDataFrame'
p611
sg14
S'Present Gene Signal Matrix'
p612
sg20
I0
sbasg37
S'panpCalls'
p613
sg39
S'/usr/lib/python2.6/dist-packages/Red-R/OrangeWidgets/widgets/panpCalls.py'
p614
sg41
S'icons/readcel.png'
p615
sg43
g2
sg14
S'Present calls with panp'
p616
sg45
S"[('Present Gene Signal Matrix', 'RvarClasses.RDataFrame')]"
p617
sg47
S"[('Normalized Affybatch', 'RAffyClasses.RAffyBatch', 'self.process')]"
p618
sg49
S'2010'
p619
sg51
S''
sg52
S'1269889389'
p620
sg54
S'<b><b>&nbsp;Present calls with panp</b></b><hr><b>Description:</b><br>&nbsp;&nbsp;Calculates differential expression of genes from an eSet object<hr><b>Inputs:</b><br> &nbsp;&nbsp; - Normalized Affybatch (RAffyClasses.RAffyBatch)<hr><b>Outputs:</b><br> &nbsp; &nbsp; - Present Gene Signal Matrix (RvarClasses.RDataFrame)'
p621
sbsS'R Variable Separator'
p622
(iorngRegistry
WidgetDescription
p623
(dp624
g10
(lp625
(iorngSignalManager
InputSignal
p626
(dp627
g14
S'R Session'
p628
sg16
I0
sg17
I2
sg18
S'self.process'
p629
sg20
I0
sg21
S'RvarClasses.RSession'
p630
sbasg23
S'Separates variables from an environment and sends them.  Generally used with the R Loader Widget.'
p631
sg25
S'R'
sg27
(lp632
(iorngSignalManager
OutputSignal
p633
(dp634
g16
I0
sg21
S'RvarClasses.RSession'
p635
sg14
S'R Session'
p636
sg20
I0
sba(iorngSignalManager
OutputSignal
p637
(dp638
g16
I0
sg21
S'RvarClasses.RVariable'
p639
sg14
S'R.object'
p640
sg20
I0
sba(iorngSignalManager
OutputSignal
p641
(dp642
g16
I0
sg21
S'RvarClasses.RDataFrame'
p643
sg14
S'R Data Frame'
p644
sg20
I0
sba(iorngSignalManager
OutputSignal
p645
(dp646
g16
I0
sg21
S'RvarClasses.RList'
p647
sg14
S'R List'
p648
sg20
I0
sba(iorngSignalManager
OutputSignal
p649
(dp650
g16
I0
sg21
S'RvarClasses.RVector'
p651
sg14
S'R Vector'
p652
sg20
I0
sbasg37
S'RVarSeparator'
p653
sg39
S'/usr/lib/python2.6/dist-packages/Red-R/OrangeWidgets/widgets/RVarSeparator.py'
p654
sg41
S'icons/rexecutor.png'
p655
sg43
g2
sg14
S'R Variable Separator'
p656
sg45
S"[('R Session', 'RvarClasses.RSession'), ('R.object', 'RvarClasses.RVariable'), ('R Data Frame', 'RvarClasses.RDataFrame'), ('R List', 'RvarClasses.RList'), ('R Vector', 'RvarClasses.RVector')]"
p657
sg47
S"[('R Session', 'RvarClasses.RSession', 'self.process')]"
p658
sg49
S'10'
p659
sg51
S''
sg52
S'1269889388'
p660
sg54
S'<b><b>&nbsp;R Variable Separator</b></b><hr><b>Description:</b><br>&nbsp;&nbsp;Separates variables from an environment and sends them.  Generally used with the R Loader Widget.<hr><b>Inputs:</b><br> &nbsp;&nbsp; - R Session (RvarClasses.RSession)<hr><b>Outputs:</b><br> &nbsp; &nbsp; - R Session (RvarClasses.RSession)<br> &nbsp; &nbsp; - R.object (RvarClasses.RVariable)<br> &nbsp; &nbsp; - R Data Frame (RvarClasses.RDataFrame)<br> &nbsp; &nbsp; - R List (RvarClasses.RList)<br> &nbsp; &nbsp; - R Vector (RvarClasses.RVector)'
p661
sbsS'Differential Expression'
p662
(iorngRegistry
WidgetDescription
p663
(dp664
g10
(lp665
(iorngSignalManager
InputSignal
p666
(dp667
g14
S'Expression Set'
p668
sg16
I0
sg17
I2
sg18
S'self.process'
p669
sg20
I0
sg21
S'RvarClasses.RDataFrame'
p670
sba(iorngSignalManager
InputSignal
p671
(dp672
g14
S'Phenotype Data'
p673
sg16
I0
sg17
I2
sg18
S'self.phenoProcess'
p674
sg20
I0
sg21
g670
sbasg23
S'Calculates differential expression of genes from an eSet object'
p675
sg25
S'Microarray'
p676
sg27
(lp677
(iorngSignalManager
OutputSignal
p678
(dp679
g16
I0
sg21
S'RvarClasses.RList'
p680
sg14
S'eBayes fit'
p681
sg20
I0
sbasg37
S'diffExp'
p682
sg39
S'/usr/lib/python2.6/dist-packages/Red-R/OrangeWidgets/widgets/diffExp.py'
p683
sg41
S'icons/diffexp.png'
p684
sg43
g2
sg14
S'Differential Expression'
p685
sg45
S"[('eBayes fit', 'RvarClasses.RList')]"
p686
sg47
S"[('Expression Set', 'RvarClasses.RDataFrame', 'self.process'), ('Phenotype Data', 'RvarClasses.RDataFrame', 'self.phenoProcess')]"
p687
sg49
S'70'
p688
sg51
S''
sg52
S'1269889389'
p689
sg54
S'<b><b>&nbsp;Differential Expression</b></b><hr><b>Description:</b><br>&nbsp;&nbsp;Calculates differential expression of genes from an eSet object<hr><b>Inputs:</b><br> &nbsp;&nbsp; - Expression Set (RvarClasses.RDataFrame)<br> &nbsp;&nbsp; - Phenotype Data (RvarClasses.RDataFrame)<hr><b>Outputs:</b><br> &nbsp; &nbsp; - eBayes fit (RvarClasses.RList)'
p690
sbsS'ANOVA-LM'
p691
(iorngRegistry
WidgetDescription
p692
(dp693
g10
(lp694
(iorngSignalManager
InputSignal
p695
(dp696
g14
S'object'
p697
sg16
I0
sg17
I2
sg18
S'self.processobject'
p698
sg20
I0
sg21
S'RvarClasses.RVariable'
p699
sbasg23
S'Performs ANOVA on a linear model, usually made using the LM widget.  Returns an output of the ANOV comparison.'
p700
sg25
S'Parametric, Stats'
p701
sg27
(lp702
sg37
S'anova_lm'
p703
sg39
S'/usr/lib/python2.6/dist-packages/Red-R/OrangeWidgets/widgets/anova_lm.py'
p704
sg41
S'icons/stats.png'
p705
sg43
g2
sg14
S'ANOVA-LM'
p706
sg45
g96
sg47
S"[('object', 'RvarClasses.RVariable', 'self.processobject')]"
p707
sg49
g77
sg51
S''
sg52
S'1269889389'
p708
sg54
S'<b><b>&nbsp;ANOVA-LM</b></b><hr><b>Description:</b><br>&nbsp;&nbsp;Performs ANOVA on a linear model, usually made using the LM widget.  Returns an output of the ANOV comparison.<hr><b>Inputs:</b><br> &nbsp;&nbsp; - object (RvarClasses.RVariable)<hr><b>Outputs:</b><br> &nbsp; &nbsp; None'
p709
sbsS'Merge Data'
p710
(iorngRegistry
WidgetDescription
p711
(dp712
g10
(lp713
(iorngSignalManager
InputSignal
p714
(dp715
g14
S'RExampleTable A'
p716
sg16
I0
sg17
I2
sg18
S'self.processA'
p717
sg20
I0
sg21
S'RvarClasses.RDataFrame'
p718
sba(iorngSignalManager
InputSignal
p719
(dp720
g14
S'RExampleTable B'
p721
sg16
I0
sg17
I2
sg18
S'self.processB'
p722
sg20
I0
sg21
g718
sbasg23
S'Merges or subsets two datasets depending on options.'
p723
sg25
S'Data Manipulation'
p724
sg27
(lp725
(iorngSignalManager
OutputSignal
p726
(dp727
g16
I0
sg21
S'RvarClasses.RDataFrame'
p728
sg14
S'Merged Examples All'
p729
sg20
I0
sba(iorngSignalManager
OutputSignal
p730
(dp731
g16
I0
sg21
g728
sg14
S'Merged Examples A+B'
p732
sg20
I0
sba(iorngSignalManager
OutputSignal
p733
(dp734
g16
I0
sg21
g728
sg14
S'Merged Examples B+A'
p735
sg20
I0
sbasg37
S'mergeR'
p736
sg39
S'/usr/lib/python2.6/dist-packages/Red-R/OrangeWidgets/widgets/mergeR.py'
p737
sg41
S'icons/merge.png'
p738
sg43
g2
sg14
S'Merge Data'
p739
sg45
S"[('Merged Examples All', 'RvarClasses.RDataFrame'), ('Merged Examples A+B', 'RvarClasses.RDataFrame'), ('Merged Examples B+A', 'RvarClasses.RDataFrame')]"
p740
sg47
S"[('RExampleTable A', 'RvarClasses.RDataFrame', 'self.processA'), ('RExampleTable B', 'RvarClasses.RDataFrame', 'self.processB')]"
p741
sg49
S'2030'
p742
sg51
S''
sg52
S'1269889389'
p743
sg54
S'<b><b>&nbsp;Merge Data</b></b><hr><b>Description:</b><br>&nbsp;&nbsp;Merges or subsets two datasets depending on options.<hr><b>Inputs:</b><br> &nbsp;&nbsp; - RExampleTable A (RvarClasses.RDataFrame)<br> &nbsp;&nbsp; - RExampleTable B (RvarClasses.RDataFrame)<hr><b>Outputs:</b><br> &nbsp; &nbsp; - Merged Examples All (RvarClasses.RDataFrame)<br> &nbsp; &nbsp; - Merged Examples A+B (RvarClasses.RDataFrame)<br> &nbsp; &nbsp; - Merged Examples B+A (RvarClasses.RDataFrame)'
p744
sbsS'SandBox'
p745
(iorngRegistry
WidgetDescription
p746
(dp747
g10
(lp748
sg23
S''
sg25
S'Prototypes'
p749
sg27
(lp750
sg37
S'SandBox'
p751
sg39
S'/usr/lib/python2.6/dist-packages/Red-R/OrangeWidgets/widgets/SandBox.py'
p752
sg41
g185
sg43
g2
sg14
S'SandBox'
p753
sg45
g96
sg47
g96
sg49
S'9010'
p754
sg51
S''
sg52
S'1269889389'
p755
sg54
S'<b><b>&nbsp;SandBox</b></b><hr><b>Description:</b><br>&nbsp;&nbsp;<hr><b>Inputs:</b><br> &nbsp;&nbsp; None<hr><b>Outputs:</b><br> &nbsp; &nbsp; None'
p756
sbsS'Load R Session'
p757
(iorngRegistry
WidgetDescription
p758
(dp759
g10
(lp760
sg23
S'Loads a previously saved Rdata session and allows the user to connect to a separator to send previously saved variables.  Should be used in conjunction with the R variable separator.'
p761
sg25
S'R'
sg27
(lp762
(iorngSignalManager
OutputSignal
p763
(dp764
g16
I0
sg21
S'RvarClasses.RSession'
p765
sg14
S'R Session'
p766
sg20
I0
sbasg37
S'RLoader'
p767
sg39
S'/usr/lib/python2.6/dist-packages/Red-R/OrangeWidgets/widgets/RLoader.py'
p768
sg41
S'icons/rexecutor.png'
p769
sg43
g2
sg14
S'Load R Session'
p770
sg45
S"[('R Session', 'RvarClasses.RSession')]"
p771
sg47
g96
sg49
S'10'
p772
sg51
S''
sg52
S'1269889389'
p773
sg54
S'<b><b>&nbsp;Load R Session</b></b><hr><b>Description:</b><br>&nbsp;&nbsp;Loads a previously saved Rdata session and allows the user to connect to a separator to send previously saved variables.  Should be used in conjunction with the R variable separator.<hr><b>Inputs:</b><br> &nbsp;&nbsp; None<hr><b>Outputs:</b><br> &nbsp; &nbsp; - R Session (RvarClasses.RSession)'
p774
sbsS'Apply Math'
p775
(iorngRegistry
WidgetDescription
p776
(dp777
g10
(lp778
(iorngSignalManager
InputSignal
p779
(dp780
g14
S'X'
sg16
I0
sg17
I2
sg18
S'self.processX'
p781
sg20
I0
sg21
S'RvarClasses.RDataFrame'
p782
sbasg23
S''
sg25
S'Data Manipulation'
p783
sg27
(lp784
(iorngSignalManager
OutputSignal
p785
(dp786
g16
I0
sg21
S'RvarClasses.RDataFrame'
p787
sg14
S'apply Output'
p788
sg20
I0
sbasg37
S'apply'
p789
sg39
S'/usr/lib/python2.6/dist-packages/Red-R/OrangeWidgets/widgets/apply.py'
p790
sg41
S'icons/rexecutor.png'
p791
sg43
g2
sg14
S'Apply Math'
p792
sg45
S"[('apply Output', 'RvarClasses.RDataFrame')]"
p793
sg47
S"[('X', 'RvarClasses.RDataFrame', 'self.processX')]"
p794
sg49
g77
sg51
S''
sg52
S'1269890319'
p795
sg54
S'<b><b>&nbsp;Apply Math</b></b><hr><b>Description:</b><br>&nbsp;&nbsp;<hr><b>Inputs:</b><br> &nbsp;&nbsp; - X (RvarClasses.RDataFrame)<hr><b>Outputs:</b><br> &nbsp; &nbsp; - apply Output (RvarClasses.RDataFrame)'
p796
sbsS'Subset'
p797
(iorngRegistry
WidgetDescription
p798
(dp799
g10
(lp800
(iorngSignalManager
InputSignal
p801
(dp802
g14
S'Data Table'
p803
sg16
I0
sg17
I2
sg18
S'self.setWidget'
p804
sg20
I0
sg21
S'RvarClasses.RDataFrame'
p805
sba(iorngSignalManager
InputSignal
p806
(dp807
g14
S'Subsetting Vector'
p808
sg16
I0
sg17
I2
sg18
S'self.setSubsettingVector'
p809
sg20
I0
sg21
S'RvarClasses.RVector'
p810
sbasg23
S"Subsets a data.frame object to pass to subsequent widgets.  Very similar to the Row Col Selector but this widget doesn't look to row or column criteria.  Instead, this widget subsets on row or column name alone, while Row Col Selector does not."
p811
sg25
S'Table Subsetting'
p812
sg27
(lp813
(iorngSignalManager
OutputSignal
p814
(dp815
g16
I0
sg21
S'RvarClasses.RDataFrame'
p816
sg14
S'Data Table'
p817
sg20
I0
sba(iorngSignalManager
OutputSignal
p818
(dp819
g16
I0
sg21
S'RvarClasses.RVector'
p820
sg14
S'Reduced Vector'
p821
sg20
I0
sbasg37
S'rowcolPicker'
p822
sg39
S'/usr/lib/python2.6/dist-packages/Red-R/OrangeWidgets/widgets/rowcolPicker.py'
p823
sg41
S'icons/Subset.png'
p824
sg43
g2
sg14
S'Subset'
p825
sg45
S"[('Data Table', 'RvarClasses.RDataFrame'), ('Reduced Vector', 'RvarClasses.RVector')]"
p826
sg47
S"[('Data Table', 'RvarClasses.RDataFrame', 'self.setWidget'), ('Subsetting Vector', 'RvarClasses.RVector', 'self.setSubsettingVector')]"
p827
sg49
S'2010'
p828
sg51
S''
sg52
S'1269889388'
p829
sg54
S"<b><b>&nbsp;Subset</b></b><hr><b>Description:</b><br>&nbsp;&nbsp;Subsets a data.frame object to pass to subsequent widgets.  Very similar to the Row Col Selector but this widget doesn't look to row or column criteria.  Instead, this widget subsets on row or column name alone, while Row Col Selector does not.<hr><b>Inputs:</b><br> &nbsp;&nbsp; - Data Table (RvarClasses.RDataFrame)<br> &nbsp;&nbsp; - Subsetting Vector (RvarClasses.RVector)<hr><b>Outputs:</b><br> &nbsp; &nbsp; - Data Table (RvarClasses.RDataFrame)<br> &nbsp; &nbsp; - Reduced Vector (RvarClasses.RVector)"
p830
sbsS'Survival Fit'
p831
(iorngRegistry
WidgetDescription
p832
(dp833
g10
(lp834
(iorngSignalManager
InputSignal
p835
(dp836
g14
S'data'
p837
sg16
I0
sg17
I2
sg18
S'self.processdata'
p838
sg20
I0
sg21
S'RvarClasses.RVariable'
p839
sba(iorngSignalManager
InputSignal
p840
(dp841
g14
S'Model Fit'
p842
sg16
I0
sg17
I2
sg18
S'self.processfit'
p843
sg20
I0
sg21
S'SurvivalClasses.SurvFit'
p844
sbasg23
S'Generates a survival fit of either a data table or a fit model.  This widget can be connected to a plotting widget for generating survival curves.'
p845
sg25
S'Survival'
p846
sg27
(lp847
(iorngSignalManager
OutputSignal
p848
(dp849
g16
I0
sg21
S'SurvivalClasses.SurvFit'
p850
sg14
S'survfit Output'
p851
sg20
I0
sbasg37
S'survfit'
p852
sg39
S'/usr/lib/python2.6/dist-packages/Red-R/OrangeWidgets/widgets/survfit.py'
p853
sg41
S'icons/RExecutor.png'
p854
sg43
g2
sg14
S'Survival Fit'
p855
sg45
S"[('survfit Output', 'SurvivalClasses.SurvFit')]"
p856
sg47
S"[('data', 'RvarClasses.RVariable', 'self.processdata'), ('Model Fit', 'SurvivalClasses.SurvFit', 'self.processfit')]"
p857
sg49
g77
sg51
S''
sg52
S'1269889388'
p858
sg54
S'<b><b>&nbsp;Survival Fit</b></b><hr><b>Description:</b><br>&nbsp;&nbsp;Generates a survival fit of either a data table or a fit model.  This widget can be connected to a plotting widget for generating survival curves.<hr><b>Inputs:</b><br> &nbsp;&nbsp; - data (RvarClasses.RVariable)<br> &nbsp;&nbsp; - Model Fit (SurvivalClasses.SurvFit)<hr><b>Outputs:</b><br> &nbsp; &nbsp; - survfit Output (SurvivalClasses.SurvFit)'
p859
sbsS'Data Explorer'
p860
(iorngRegistry
WidgetDescription
p861
(dp862
g10
(lp863
(iorngSignalManager
InputSignal
p864
(dp865
g14
S'Data Table'
p866
sg16
I0
sg17
I2
sg18
S'self.processData'
p867
sg20
I0
sg21
S'RvarClasses.RDataFrame'
p868
sba(iorngSignalManager
InputSignal
p869
(dp870
g14
S'Row Subset Vector'
p871
sg16
I0
sg17
I2
sg18
S'self.setRowSelectVector'
p872
sg20
I0
sg21
S'RvarClasses.RVector'
p873
sbasg23
S'Shows data in a spreadsheet.  The data can be subset and passed to other widgets.'
p874
sg25
S'Data Exploration and Visualization, Table Subsetting'
p875
sg27
(lp876
(iorngSignalManager
OutputSignal
p877
(dp878
g16
I0
sg21
S'RvarClasses.RDataFrame'
p879
sg14
S'Data Subset'
p880
sg20
I0
sbasg37
S'DataExplorer'
p881
sg39
S'/usr/lib/python2.6/dist-packages/Red-R/OrangeWidgets/widgets/DataExplorer.py'
p882
sg41
S'icons/datatable.png'
p883
sg43
g2
sg14
S'Data Explorer'
p884
sg45
S"[('Data Subset', 'RvarClasses.RDataFrame')]"
p885
sg47
S"[('Data Table', 'RvarClasses.RDataFrame', 'self.processData'), ('Row Subset Vector', 'RvarClasses.RVector', 'self.setRowSelectVector')]"
p886
sg49
S'1010'
p887
sg51
S''
sg52
S'1269889389'
p888
sg54
S'<b><b>&nbsp;Data Explorer</b></b><hr><b>Description:</b><br>&nbsp;&nbsp;Shows data in a spreadsheet.  The data can be subset and passed to other widgets.<hr><b>Inputs:</b><br> &nbsp;&nbsp; - Data Table (RvarClasses.RDataFrame)<br> &nbsp;&nbsp; - Row Subset Vector (RvarClasses.RVector)<hr><b>Outputs:</b><br> &nbsp; &nbsp; - Data Subset (RvarClasses.RDataFrame)'
p889
sbsS'ED'
p890
(iorngRegistry
WidgetDescription
p891
(dp892
g10
(lp893
(iorngSignalManager
InputSignal
p894
(dp895
g14
S'object'
p896
sg16
I0
sg17
I2
sg18
S'self.processobject'
p897
sg20
I0
sg21
S'RvarClasses.RVariable'
p898
sbasg23
S''
sg25
S'Dose Response'
p899
sg27
(lp900
(iorngSignalManager
OutputSignal
p901
(dp902
g16
I0
sg21
S'RvarClasses.RVariable'
p903
sg14
S'ED Output'
p904
sg20
I0
sbasg37
S'ED'
p905
sg39
S'/usr/lib/python2.6/dist-packages/Red-R/OrangeWidgets/widgets/ED.py'
p906
sg41
S'icons/drc.PNG'
p907
sg43
g2
sg14
S'ED'
p908
sg45
S"[('ED Output', 'RvarClasses.RVariable')]"
p909
sg47
S"[('object', 'RvarClasses.RVariable', 'self.processobject')]"
p910
sg49
g77
sg51
S''
sg52
S'1269889389'
p911
sg54
S'<b><b>&nbsp;ED</b></b><hr><b>Description:</b><br>&nbsp;&nbsp;<hr><b>Inputs:</b><br> &nbsp;&nbsp; - object (RvarClasses.RVariable)<hr><b>Outputs:</b><br> &nbsp; &nbsp; - ED Output (RvarClasses.RVariable)'
p912
sbsS'RedR Scatterplot'
p913
(iorngRegistry
WidgetDescription
p914
(dp915
g10
(lp916
(iorngSignalManager
InputSignal
p917
(dp918
g14
S'x'
sg16
I0
sg17
I2
sg18
S'self.gotX'
p919
sg20
I0
sg21
S'RvarClasses.RDataFrame'
p920
sbasg23
S'Reads files from a text file and brings them into RedR.  These files should be like a table and should have values that are separated either by a tab, space, or comma.  You can use the scan feature to scan a small part of your data and make sure that it is in the correct format.  You can also set a column to represent the row names of your data.  This is encouraged if you have row names as some widgets rely on row names to help them function.'
p921
sg25
S'Plotting, Data Classification'
p922
sg27
(lp923
(iorngSignalManager
OutputSignal
p924
(dp925
g16
I0
sg21
S'RvarClasses.RDataFrame'
p926
sg14
S'test output'
p927
sg20
I0
sbasg37
S'RedRScatterplot'
p928
sg39
S'/usr/lib/python2.6/dist-packages/Red-R/OrangeWidgets/widgets/RedRScatterplot.py'
p929
sg41
S'icons/plot.PNG'
p930
sg43
g2
sg14
S'RedR Scatterplot'
p931
sg45
S"[('test output', 'RvarClasses.RDataFrame')]"
p932
sg47
S"[('x', 'RvarClasses.RDataFrame', 'self.gotX')]"
p933
sg49
S'10'
p934
sg51
S''
sg52
S'1269889389'
p935
sg54
S'<b><b>&nbsp;RedR Scatterplot</b></b><hr><b>Description:</b><br>&nbsp;&nbsp;Reads files from a text file and brings them into RedR.  These files should be like a table and should have values that are separated either by a tab, space, or comma.  You can use the scan feature to scan a small part of your data and make sure that it is in the correct format.  You can also set a column to represent the row names of your data.  This is encouraged if you have row names as some widgets rely on row names to help them function.<hr><b>Inputs:</b><br> &nbsp;&nbsp; - x (RvarClasses.RDataFrame)<hr><b>Outputs:</b><br> &nbsp; &nbsp; - test output (RvarClasses.RDataFrame)'
p936
sbsS'Survival Plot'
p937
(iorngRegistry
WidgetDescription
p938
(dp939
g10
(lp940
(iorngSignalManager
InputSignal
p941
(dp942
g14
S'x'
sg16
I0
sg17
I2
sg18
S'self.processx'
p943
sg20
I0
sg21
S'SurvivalClasses.SurvFit'
p944
sbasg23
S'Plots a survival object, usually from Survival Fit'
p945
sg25
S'Survival'
p946
sg27
(lp947
sg37
S'survivalPlot'
p948
sg39
S'/usr/lib/python2.6/dist-packages/Red-R/OrangeWidgets/widgets/survivalPlot.py'
p949
sg41
S'icons/survival.png'
p950
sg43
g2
sg14
S'Survival Plot'
p951
sg45
g96
sg47
S"[('x', 'SurvivalClasses.SurvFit', 'self.processx')]"
p952
sg49
g77
sg51
S''
sg52
S'1269889388'
p953
sg54
S'<b><b>&nbsp;Survival Plot</b></b><hr><b>Description:</b><br>&nbsp;&nbsp;Plots a survival object, usually from Survival Fit<hr><b>Inputs:</b><br> &nbsp;&nbsp; - x (SurvivalClasses.SurvFit)<hr><b>Outputs:</b><br> &nbsp; &nbsp; None'
p954
sbsS'Quantile Normalization'
p955
(iorngRegistry
WidgetDescription
p956
(dp957
g10
(lp958
(iorngSignalManager
InputSignal
p959
(dp960
g14
S'x'
sg16
I0
sg17
I2
sg18
S'self.processx'
p961
sg20
I0
sg21
S'RvarClasses.RDataFrame'
p962
sbasg23
S''
sg25
g177
sg27
(lp963
(iorngSignalManager
OutputSignal
p964
(dp965
g16
I0
sg21
S'RvarClasses.RDataFrame'
p966
sg14
S'normalize.quantiles Output'
p967
sg20
I0
sbasg37
S'normalize_quantiles'
p968
sg39
S'/usr/lib/python2.6/dist-packages/Red-R/OrangeWidgets/widgets/normalize_quantiles.py'
p969
sg41
g185
sg43
g2
sg14
S'Quantile Normalization'
p970
sg45
S"[('normalize.quantiles Output', 'RvarClasses.RDataFrame')]"
p971
sg47
S"[('x', 'RvarClasses.RDataFrame', 'self.processx')]"
p972
sg49
g77
sg51
S''
sg52
S'1269889389'
p973
sg54
S'<b><b>&nbsp;Quantile Normalization</b></b><hr><b>Description:</b><br>&nbsp;&nbsp;<hr><b>Inputs:</b><br> &nbsp;&nbsp; - x (RvarClasses.RDataFrame)<hr><b>Outputs:</b><br> &nbsp; &nbsp; - normalize.quantiles Output (RvarClasses.RDataFrame)'
p974
sbsS'rownames'
p975
(iorngRegistry
WidgetDescription
p976
(dp977
g10
(lp978
(iorngSignalManager
InputSignal
p979
(dp980
g14
S'x'
sg16
I0
sg17
I2
sg18
S'self.processx'
p981
sg20
I0
sg21
S'RvarClasses.RDataFrame'
p982
sbasg23
S'Returns a vector of rownames coresponding to the row names of a data table.'
p983
sg25
S'Data Manipulation'
p984
sg27
(lp985
(iorngSignalManager
OutputSignal
p986
(dp987
g16
I0
sg21
S'RvarClasses.RVector'
p988
sg14
S'rownames Output'
p989
sg20
I0
sbasg37
S'rownames'
p990
sg39
S'/usr/lib/python2.6/dist-packages/Red-R/OrangeWidgets/widgets/rownames.py'
p991
sg41
S'icons/readfile.png'
p992
sg43
g2
sg14
S'rownames'
p993
sg45
S"[('rownames Output', 'RvarClasses.RVector')]"
p994
sg47
S"[('x', 'RvarClasses.RDataFrame', 'self.processx')]"
p995
sg49
g77
sg51
S''
sg52
S'1269889389'
p996
sg54
S'<b><b>&nbsp;rownames</b></b><hr><b>Description:</b><br>&nbsp;&nbsp;Returns a vector of rownames coresponding to the row names of a data table.<hr><b>Inputs:</b><br> &nbsp;&nbsp; - x (RvarClasses.RDataFrame)<hr><b>Outputs:</b><br> &nbsp; &nbsp; - rownames Output (RvarClasses.RVector)'
p997
sbsS'View Data Table'
p998
(iorngRegistry
WidgetDescription
p999
(dp1000
g10
(lp1001
(iorngSignalManager
InputSignal
p1002
(dp1003
g14
S'Examples'
p1004
sg16
I0
sg17
I2
sg18
S'self.dataset'
p1005
sg20
I0
sg21
S'RvarClasses.RDataFrame'
p1006
sbasg23
S'Shows data in a spreadsheet.'
p1007
sg25
S'Data Exploration and Visualization'
p1008
sg27
(lp1009
sg37
S'RDataTable'
p1010
sg39
S'/usr/lib/python2.6/dist-packages/Red-R/OrangeWidgets/widgets/RDataTable.py'
p1011
sg41
S'icons/datatable.png'
p1012
sg43
g2
sg14
S'View Data Table'
p1013
sg45
S'[]'
p1014
sg47
S"[('Examples', 'RvarClasses.RDataFrame', 'self.dataset')]"
p1015
sg49
S'1010'
p1016
sg51
S''
sg52
S'1269889389'
p1017
sg54
S'<b><b>&nbsp;View Data Table</b></b><hr><b>Description:</b><br>&nbsp;&nbsp;Shows data in a spreadsheet.<hr><b>Inputs:</b><br> &nbsp;&nbsp; - Examples (RvarClasses.RDataFrame)<hr><b>Outputs:</b><br> &nbsp; &nbsp; None'
p1018
sbsS'R Executor'
p1019
(iorngRegistry
WidgetDescription
p1020
(dp1021
g10
(lp1022
(iorngSignalManager
InputSignal
p1023
(dp1024
g14
S'R.object'
p1025
sg16
I0
sg17
I2
sg18
S'self.process'
p1026
sg20
I0
sg21
S'RvarClasses.RVariable'
p1027
sbasg23
S'Accepts and sends R objects as well as performing R commands'
p1028
sg25
S'Special, R'
p1029
sg27
(lp1030
(iorngSignalManager
OutputSignal
p1031
(dp1032
g16
I0
sg21
S'RvarClasses.RVariable'
p1033
sg14
S'R.object'
p1034
sg20
I0
sba(iorngSignalManager
OutputSignal
p1035
(dp1036
g16
I0
sg21
S'RvarClasses.RDataFrame'
p1037
sg14
S'R Data Frame'
p1038
sg20
I0
sba(iorngSignalManager
OutputSignal
p1039
(dp1040
g16
I0
sg21
S'RvarClasses.RList'
p1041
sg14
S'R List'
p1042
sg20
I0
sba(iorngSignalManager
OutputSignal
p1043
(dp1044
g16
I0
sg21
S'RvarClasses.RVector'
p1045
sg14
S'R Vector'
p1046
sg20
I0
sbasg37
S'rExecutor'
p1047
sg39
S'/usr/lib/python2.6/dist-packages/Red-R/OrangeWidgets/widgets/rExecutor.py'
p1048
sg41
S'icons/RExecutor.PNG'
p1049
sg43
g2
sg14
S'R Executor'
p1050
sg45
S"[('R.object', 'RvarClasses.RVariable'), ('R Data Frame', 'RvarClasses.RDataFrame'), ('R List', 'RvarClasses.RList'), ('R Vector', 'RvarClasses.RVector')]"
p1051
sg47
S"[('R.object', 'RvarClasses.RVariable', 'self.process')]"
p1052
sg49
S'80'
p1053
sg51
S''
sg52
S'1269889389'
p1054
sg54
S'<b><b>&nbsp;R Executor</b></b><hr><b>Description:</b><br>&nbsp;&nbsp;Accepts and sends R objects as well as performing R commands<hr><b>Inputs:</b><br> &nbsp;&nbsp; - R.object (RvarClasses.RVariable)<hr><b>Outputs:</b><br> &nbsp; &nbsp; - R.object (RvarClasses.RVariable)<br> &nbsp; &nbsp; - R Data Frame (RvarClasses.RDataFrame)<br> &nbsp; &nbsp; - R List (RvarClasses.RList)<br> &nbsp; &nbsp; - R Vector (RvarClasses.RVector)'
p1055
sbsS'Widget Maker'
p1056
(iorngRegistry
WidgetDescription
p1057
(dp1058
g10
(lp1059
sg23
S'A widget for making the initial framework of a functional widget given an R package and function.'
p1060
sg25
S'Special'
p1061
sg27
(lp1062
sg37
S'widgetMaker'
p1063
sg39
S'/usr/lib/python2.6/dist-packages/Red-R/OrangeWidgets/widgets/widgetMaker.py'
p1064
sg41
S'icons/RExecutor.png'
p1065
sg43
g2
sg14
S'Widget Maker'
p1066
sg45
g96
sg47
g96
sg49
g77
sg51
S''
sg52
S'1269889388'
p1067
sg54
S'<b><b>&nbsp;Widget Maker</b></b><hr><b>Description:</b><br>&nbsp;&nbsp;A widget for making the initial framework of a functional widget given an R package and function.<hr><b>Inputs:</b><br> &nbsp;&nbsp; None<hr><b>Outputs:</b><br> &nbsp; &nbsp; None'
p1068
sbsS'Row or Column Screener'
p1069
(iorngRegistry
WidgetDescription
p1070
(dp1071
g10
(lp1072
(iorngSignalManager
InputSignal
p1073
(dp1074
g14
S'Data Table'
p1075
sg16
I0
sg17
I2
sg18
S'self.setWidget'
p1076
sg20
I0
sg21
S'RvarClasses.RDataFrame'
p1077
sba(iorngSignalManager
InputSignal
p1078
(dp1079
g14
S'Subsetting Vector'
p1080
sg16
I0
sg17
I2
sg18
S'self.setSubsettingVector'
p1081
sg20
I0
sg21
S'RvarClasses.RVector'
p1082
sbasg23
S'Subsets a data.frame object to pass to subsequent widgets.'
p1083
sg25
S'Table Subsetting'
p1084
sg27
(lp1085
(iorngSignalManager
OutputSignal
p1086
(dp1087
g16
I0
sg21
S'RvarClasses.RDataFrame'
p1088
sg14
S'Data Table'
p1089
sg20
I0
sba(iorngSignalManager
OutputSignal
p1090
(dp1091
g16
I0
sg21
S'RvarClasses.RVector'
p1092
sg14
S'Reduced Vector'
p1093
sg20
I0
sbasg37
S'rowcolSelector'
p1094
sg39
S'/usr/lib/python2.6/dist-packages/Red-R/OrangeWidgets/widgets/rowcolSelector.py'
p1095
sg41
S'icons/subset.png'
p1096
sg43
g2
sg14
S'Row or Column Screener'
p1097
sg45
S"[('Data Table', 'RvarClasses.RDataFrame'), ('Reduced Vector', 'RvarClasses.RVector')]"
p1098
sg47
S"[('Data Table', 'RvarClasses.RDataFrame', 'self.setWidget'), ('Subsetting Vector', 'RvarClasses.RVector', 'self.setSubsettingVector')]"
p1099
sg49
S'2010'
p1100
sg51
S''
sg52
S'1269889389'
p1101
sg54
S'<b><b>&nbsp;Row or Column Screener</b></b><hr><b>Description:</b><br>&nbsp;&nbsp;Subsets a data.frame object to pass to subsequent widgets.<hr><b>Inputs:</b><br> &nbsp;&nbsp; - Data Table (RvarClasses.RDataFrame)<br> &nbsp;&nbsp; - Subsetting Vector (RvarClasses.RVector)<hr><b>Outputs:</b><br> &nbsp; &nbsp; - Data Table (RvarClasses.RDataFrame)<br> &nbsp; &nbsp; - Reduced Vector (RvarClasses.RVector)'
p1102
sbsS'Box Plot'
p1103
(iorngRegistry
WidgetDescription
p1104
(dp1105
g10
(lp1106
(iorngSignalManager
InputSignal
p1107
(dp1108
g14
S'x'
sg16
I0
sg17
I2
sg18
S'self.processx'
p1109
sg20
I0
sg21
S'RvarClasses.RVariable'
p1110
sbasg23
S''
sg25
S'Plotting'
p1111
sg27
(lp1112
sg37
S'boxplot'
p1113
sg39
S'/usr/lib/python2.6/dist-packages/Red-R/OrangeWidgets/widgets/boxplot.py'
p1114
sg41
S'icons/boxplot.png'
p1115
sg43
g2
sg14
S'Box Plot'
p1116
sg45
g96
sg47
S"[('x', 'RvarClasses.RVariable', 'self.processx')]"
p1117
sg49
g77
sg51
S''
sg52
S'1269889389'
p1118
sg54
S'<b><b>&nbsp;Box Plot</b></b><hr><b>Description:</b><br>&nbsp;&nbsp;<hr><b>Inputs:</b><br> &nbsp;&nbsp; - x (RvarClasses.RVariable)<hr><b>Outputs:</b><br> &nbsp; &nbsp; None'
p1119
sbsS'Melt Data Frame'
p1120
(iorngRegistry
WidgetDescription
p1121
(dp1122
g10
(lp1123
(iorngSignalManager
InputSignal
p1124
(dp1125
g14
S'data'
p1126
sg16
I0
sg17
I2
sg18
S'self.processdata'
p1127
sg20
I0
sg21
S'RvarClasses.RDataFrame'
p1128
sbasg23
S''
sg25
S'Data Manipulation'
p1129
sg27
(lp1130
(iorngSignalManager
OutputSignal
p1131
(dp1132
g16
I0
sg21
S'RvarClasses.RDataFrame'
p1133
sg14
S'melt.data.frame Output'
p1134
sg20
I0
sbasg37
S'Melt_DF'
p1135
sg39
S'/usr/lib/python2.6/dist-packages/Red-R/OrangeWidgets/widgets/Melt_DF.py'
p1136
sg41
S'icons/rexecutor.png'
p1137
sg43
g2
sg14
S'Melt Data Frame'
p1138
sg45
S"[('melt.data.frame Output', 'RvarClasses.RDataFrame')]"
p1139
sg47
S"[('data', 'RvarClasses.RDataFrame', 'self.processdata')]"
p1140
sg49
S'2060'
p1141
sg51
S''
sg52
S'1269889389'
p1142
sg54
S'<b><b>&nbsp;Melt Data Frame</b></b><hr><b>Description:</b><br>&nbsp;&nbsp;<hr><b>Inputs:</b><br> &nbsp;&nbsp; - data (RvarClasses.RDataFrame)<hr><b>Outputs:</b><br> &nbsp; &nbsp; - melt.data.frame Output (RvarClasses.RDataFrame)'
p1143
sbsS'lines'
p1144
(iorngRegistry
WidgetDescription
p1145
(dp1146
g10
(lp1147
(iorngSignalManager
InputSignal
p1148
(dp1149
g14
S'x'
sg16
I0
sg17
I2
sg18
S'self.processx'
p1150
sg20
I0
sg21
S'RvarClasses.RVariable'
p1151
sbasg23
S''
sg25
g177
sg27
(lp1152
sg37
S'lines'
p1153
sg39
S'/usr/lib/python2.6/dist-packages/Red-R/OrangeWidgets/widgets/lines.py'
p1154
sg41
g185
sg43
g2
sg14
S'lines'
p1155
sg45
g96
sg47
S"[('x', 'RvarClasses.RVariable', 'self.processx')]"
p1156
sg49
g77
sg51
S''
sg52
S'1269889389'
p1157
sg54
S'<b><b>&nbsp;lines</b></b><hr><b>Description:</b><br>&nbsp;&nbsp;<hr><b>Inputs:</b><br> &nbsp;&nbsp; - x (RvarClasses.RVariable)<hr><b>Outputs:</b><br> &nbsp; &nbsp; None'
p1158
sbsS'Rank'
p1159
(iorngRegistry
WidgetDescription
p1160
(dp1161
g10
(lp1162
(iorngSignalManager
InputSignal
p1163
(dp1164
g14
S'x'
sg16
I0
sg17
I2
sg18
S'self.processx'
p1165
sg20
I0
sg21
S'RvarClasses.RVector'
p1166
sbasg23
S'This Widget ranks elements in a vector and returns a ranked vector.'
p1167
sg25
S'Data Manipulation'
p1168
sg27
(lp1169
(iorngSignalManager
OutputSignal
p1170
(dp1171
g16
I0
sg21
S'RvarClasses.RVector'
p1172
sg14
S'rank Output'
p1173
sg20
I0
sbasg37
S'rank'
p1174
sg39
S'/usr/lib/python2.6/dist-packages/Red-R/OrangeWidgets/widgets/rank.py'
p1175
sg41
S'icons/readfile.png'
p1176
sg43
g2
sg14
S'Rank'
p1177
sg45
S"[('rank Output', 'RvarClasses.RVector')]"
p1178
sg47
S"[('x', 'RvarClasses.RVector', 'self.processx')]"
p1179
sg49
g77
sg51
S''
sg52
S'1269889388'
p1180
sg54
S'<b><b>&nbsp;Rank</b></b><hr><b>Description:</b><br>&nbsp;&nbsp;This Widget ranks elements in a vector and returns a ranked vector.<hr><b>Inputs:</b><br> &nbsp;&nbsp; - x (RvarClasses.RVector)<hr><b>Outputs:</b><br> &nbsp; &nbsp; - rank Output (RvarClasses.RVector)'
p1181
sbsS'pamr.cv'
p1182
(iorngRegistry
WidgetDescription
p1183
(dp1184
g10
(lp1185
(iorngSignalManager
InputSignal
p1186
(dp1187
g14
S'data'
p1188
sg16
I0
sg17
I2
sg18
S'self.processdata'
p1189
sg20
I0
sg21
S'RvarClasses.RVariable'
p1190
sba(iorngSignalManager
InputSignal
p1191
(dp1192
g14
S'fit'
p1193
sg16
I0
sg17
I2
sg18
S'self.processfit'
p1194
sg20
I0
sg21
g1190
sbasg23
S''
sg25
g177
sg27
(lp1195
(iorngSignalManager
OutputSignal
p1196
(dp1197
g16
I0
sg21
S'RvarClasses.RVariable'
p1198
sg14
S'pamr.cv Output'
p1199
sg20
I0
sbasg37
S'pamr_cv'
p1200
sg39
S'/usr/lib/python2.6/dist-packages/Red-R/OrangeWidgets/widgets/pamr_cv.py'
p1201
sg41
g185
sg43
g2
sg14
S'pamr.cv'
p1202
sg45
S"[('pamr.cv Output', 'RvarClasses.RVariable')]"
p1203
sg47
S"[('data', 'RvarClasses.RVariable', 'self.processdata'), ('fit', 'RvarClasses.RVariable', 'self.processfit')]"
p1204
sg49
g77
sg51
S''
sg52
S'1269889389'
p1205
sg54
S'<b><b>&nbsp;pamr.cv</b></b><hr><b>Description:</b><br>&nbsp;&nbsp;<hr><b>Inputs:</b><br> &nbsp;&nbsp; - data (RvarClasses.RVariable)<br> &nbsp;&nbsp; - fit (RvarClasses.RVariable)<hr><b>Outputs:</b><br> &nbsp; &nbsp; - pamr.cv Output (RvarClasses.RVariable)'
p1206
sbsS'R viewer'
p1207
(iorngRegistry
WidgetDescription
p1208
(dp1209
g10
(lp1210
(iorngSignalManager
InputSignal
p1211
(dp1212
g14
S'data'
p1213
sg16
I0
sg17
I2
sg18
S'self.processdata'
p1214
sg20
I0
sg21
S'RvarClasses.RVariable'
p1215
sbasg23
S'Shows the output of an R variable, equivalent to typing the variable name in the R Executor'
p1216
sg25
S'Data Exploration and Visualization'
p1217
sg27
(lp1218
sg37
S'rViewer'
p1219
sg39
S'/usr/lib/python2.6/dist-packages/Red-R/OrangeWidgets/widgets/rViewer.py'
p1220
sg41
S'icons/rexecutor.png'
p1221
sg43
g2
sg14
S'R viewer'
p1222
sg45
g96
sg47
S"[('data', 'RvarClasses.RVariable', 'self.processdata')]"
p1223
sg49
S'10'
p1224
sg51
S''
sg52
S'1269889389'
p1225
sg54
S'<b><b>&nbsp;R viewer</b></b><hr><b>Description:</b><br>&nbsp;&nbsp;Shows the output of an R variable, equivalent to typing the variable name in the R Executor<hr><b>Inputs:</b><br> &nbsp;&nbsp; - data (RvarClasses.RVariable)<hr><b>Outputs:</b><br> &nbsp; &nbsp; None'
p1226
sbsS'Percentile Classifier'
p1227
(iorngRegistry
WidgetDescription
p1228
(dp1229
g10
(lp1230
(iorngSignalManager
InputSignal
p1231
(dp1232
g14
S'Data Frame'
p1233
sg16
I0
sg17
I2
sg18
S'self.processData'
p1234
sg20
I0
sg21
S'RvarClasses.RDataFrame'
p1235
sbasg23
S'Appends a column to a data frame with the classifications of rows based on the values of a column being greater than some percentile.'
p1236
sg25
S'Data Classification'
p1237
sg27
(lp1238
(iorngSignalManager
OutputSignal
p1239
(dp1240
g16
I0
sg21
S'RvarClasses.RDataFrame'
p1241
sg14
S'Data Frame'
p1242
sg20
I0
sbasg37
S'percentileClassifier'
p1243
sg39
S'/usr/lib/python2.6/dist-packages/Red-R/OrangeWidgets/widgets/percentileClassifier.py'
p1244
sg41
S'icons/RExecutor.png'
p1245
sg43
g2
sg14
S'Percentile Classifier'
p1246
sg45
S"[('Data Frame', 'RvarClasses.RDataFrame')]"
p1247
sg47
S"[('Data Frame', 'RvarClasses.RDataFrame', 'self.processData')]"
p1248
sg49
g77
sg51
S''
sg52
S'1269889389'
p1249
sg54
S'<b><b>&nbsp;Percentile Classifier</b></b><hr><b>Description:</b><br>&nbsp;&nbsp;Appends a column to a data frame with the classifications of rows based on the values of a column being greater than some percentile.<hr><b>Inputs:</b><br> &nbsp;&nbsp; - Data Frame (RvarClasses.RDataFrame)<hr><b>Outputs:</b><br> &nbsp; &nbsp; - Data Frame (RvarClasses.RDataFrame)'
p1250
sbsS'Cox Porportional Hazards'
p1251
(iorngRegistry
WidgetDescription
p1252
(dp1253
g10
(lp1254
(iorngSignalManager
InputSignal
p1255
(dp1256
g14
S'data'
p1257
sg16
I0
sg17
I2
sg18
S'self.processdata'
p1258
sg20
I0
sg21
S'RvarClasses.RVariable'
p1259
sbasg23
S'Performs Cox Proportional Hazards on a collection of data with event times, event status, and a set of grouping variables.  This widget can perform complex comparisons inculding interactions.'
p1260
sg25
S'Survival'
p1261
sg27
(lp1262
(iorngSignalManager
OutputSignal
p1263
(dp1264
g16
I0
sg21
S'SurvivalClasses.SurvFit'
p1265
sg14
S'coxph Output'
p1266
sg20
I0
sbasg37
S'coxph'
p1267
sg39
S'/usr/lib/python2.6/dist-packages/Red-R/OrangeWidgets/widgets/coxph.py'
p1268
sg41
S'icons/RExecutor.png'
p1269
sg43
g2
sg14
S'Cox Porportional Hazards'
p1270
sg45
S"[('coxph Output', 'SurvivalClasses.SurvFit')]"
p1271
sg47
S"[('data', 'RvarClasses.RVariable', 'self.processdata')]"
p1272
sg49
g77
sg51
S''
sg52
S'1269889389'
p1273
sg54
S'<b><b>&nbsp;Cox Porportional Hazards</b></b><hr><b>Description:</b><br>&nbsp;&nbsp;Performs Cox Proportional Hazards on a collection of data with event times, event status, and a set of grouping variables.  This widget can perform complex comparisons inculding interactions.<hr><b>Inputs:</b><br> &nbsp;&nbsp; - data (RvarClasses.RVariable)<hr><b>Outputs:</b><br> &nbsp; &nbsp; - coxph Output (SurvivalClasses.SurvFit)'
p1274
sbsS'Pathway Enrichment'
p1275
(iorngRegistry
WidgetDescription
p1276
(dp1277
g10
(lp1278
(iorngSignalManager
InputSignal
p1279
(dp1280
g14
S'Expression Set'
p1281
sg16
I0
sg17
I2
sg18
S'self.process'
p1282
sg20
I0
sg21
S'RvarClasses.RDataFrame'
p1283
sba(iorngSignalManager
InputSignal
p1284
(dp1285
g14
S'Pathway Annotation List'
p1286
sg16
I0
sg17
I2
sg18
S'self.processPathAnnot'
p1287
sg20
I0
sg21
g1283
sba(iorngSignalManager
InputSignal
p1288
(dp1289
g14
S'Phenotype Vector'
p1290
sg16
I0
sg17
I2
sg18
S'self.phenotypeConnected'
p1291
sg20
I0
sg21
S'RvarClasses.RVector'
p1292
sbasg23
S'Performs Pathway Analysis on a genelist or subset (must specify gene list as either a full list or a subset on connecting)'
p1293
sg25
S'Microarray'
p1294
sg27
(lp1295
(iorngSignalManager
OutputSignal
p1296
(dp1297
g16
I0
sg21
S'RvarClasses.RDataFrame'
p1298
sg14
S'Pathway Analysis File'
p1299
sg20
I0
sba(iorngSignalManager
OutputSignal
p1300
(dp1301
g16
I0
sg21
g1298
sg14
S'Pathway Annotation List'
p1302
sg20
I0
sba(iorngSignalManager
OutputSignal
p1303
(dp1304
g16
I0
sg21
g1298
sg14
S'Pathway List'
p1305
sg20
I0
sbasg37
S'runSigPathway'
p1306
sg39
S'/usr/lib/python2.6/dist-packages/Red-R/OrangeWidgets/widgets/runSigPathway.py'
p1307
sg41
S'icons/readcel.png'
p1308
sg43
g2
sg14
S'Pathway Enrichment'
p1309
sg45
S"[('Pathway Analysis File', 'RvarClasses.RDataFrame'), ('Pathway Annotation List', 'RvarClasses.RDataFrame'), ('Pathway List', 'RvarClasses.RDataFrame')]"
p1310
sg47
S"[('Expression Set', 'RvarClasses.RDataFrame', 'self.process'), ('Pathway Annotation List', 'RvarClasses.RDataFrame', 'self.processPathAnnot'), ('Phenotype Vector', 'RvarClasses.RVector', 'self.phenotypeConnected')]"
p1311
sg49
S'2030'
p1312
sg51
S''
sg52
S'1269889388'
p1313
sg54
S'<b><b>&nbsp;Pathway Enrichment</b></b><hr><b>Description:</b><br>&nbsp;&nbsp;Performs Pathway Analysis on a genelist or subset (must specify gene list as either a full list or a subset on connecting)<hr><b>Inputs:</b><br> &nbsp;&nbsp; - Expression Set (RvarClasses.RDataFrame)<br> &nbsp;&nbsp; - Pathway Annotation List (RvarClasses.RDataFrame)<br> &nbsp;&nbsp; - Phenotype Vector (RvarClasses.RVector)<hr><b>Outputs:</b><br> &nbsp; &nbsp; - Pathway Analysis File (RvarClasses.RDataFrame)<br> &nbsp; &nbsp; - Pathway Annotation List (RvarClasses.RDataFrame)<br> &nbsp; &nbsp; - Pathway List (RvarClasses.RDataFrame)'
p1314
sbsS'Class Manager Editor'
p1315
(iorngRegistry
WidgetDescription
p1316
(dp1317
g10
(lp1318
(iorngSignalManager
InputSignal
p1319
(dp1320
g14
S'Data Table'
p1321
sg16
I0
sg17
I2
sg18
S'self.processDF'
p1322
sg20
I0
sg21
S'RvarClasses.RDataFrame'
p1323
sbasg23
S'Virtually Identical to Data Entry but works on the Class Manager of a data table.  This can be used to assign classes to data for plotting or subsetting.'
p1324
sg25
S'Data Input'
p1325
sg27
(lp1326
(iorngSignalManager
OutputSignal
p1327
(dp1328
g16
I0
sg21
S'RvarClasses.RDataFrame'
p1329
sg14
S'Data Table'
p1330
sg20
I0
sba(iorngSignalManager
OutputSignal
p1331
(dp1332
g16
I0
sg21
g1329
sg14
S'CM'
p1333
sg20
I0
sbasg37
S'cmEditor'
p1334
sg39
S'/usr/lib/python2.6/dist-packages/Red-R/OrangeWidgets/widgets/cmEditor.py'
p1335
sg41
S'icons/File.png'
p1336
sg43
g2
sg14
S'Class Manager Editor'
p1337
sg45
S"[('Data Table', 'RvarClasses.RDataFrame'), ('CM', 'RvarClasses.RDataFrame')]"
p1338
sg47
S"[('Data Table', 'RvarClasses.RDataFrame', 'self.processDF')]"
p1339
sg49
S'20'
p1340
sg51
S''
sg52
S'1269890185'
p1341
sg54
S'<b><b>&nbsp;Class Manager Editor</b></b><hr><b>Description:</b><br>&nbsp;&nbsp;Virtually Identical to Data Entry but works on the Class Manager of a data table.  This can be used to assign classes to data for plotting or subsetting.<hr><b>Inputs:</b><br> &nbsp;&nbsp; - Data Table (RvarClasses.RDataFrame)<hr><b>Outputs:</b><br> &nbsp; &nbsp; - Data Table (RvarClasses.RDataFrame)<br> &nbsp; &nbsp; - CM (RvarClasses.RDataFrame)'
p1342
sbsS'Get Symbol'
p1343
(iorngRegistry
WidgetDescription
p1344
(dp1345
g10
(lp1346
sg23
S'Still a bit of an experimental widget, this widget gets symbol data and brings it into RedR.  Data can be plotted using the barChart widget.'
p1347
sg25
S'Finance'
p1348
sg27
(lp1349
(iorngSignalManager
OutputSignal
p1350
(dp1351
g16
I0
sg21
S'RvarClasses.RVariable'
p1352
sg14
S'getSymbols Output'
p1353
sg20
I0
sbasg37
S'getSymbols'
p1354
sg39
S'/usr/lib/python2.6/dist-packages/Red-R/OrangeWidgets/widgets/getSymbols.py'
p1355
sg41
S'icons/Finance.PNG'
p1356
sg43
g2
sg14
S'Get Symbol'
p1357
sg45
S"[('getSymbols Output', 'RvarClasses.RVariable')]"
p1358
sg47
g96
sg49
g77
sg51
S''
sg52
S'1269889389'
p1359
sg54
S'<b><b>&nbsp;Get Symbol</b></b><hr><b>Description:</b><br>&nbsp;&nbsp;Still a bit of an experimental widget, this widget gets symbol data and brings it into RedR.  Data can be plotted using the barChart widget.<hr><b>Inputs:</b><br> &nbsp;&nbsp; None<hr><b>Outputs:</b><br> &nbsp; &nbsp; - getSymbols Output (RvarClasses.RVariable)'
p1360
sbsS'Data Entry'
p1361
(iorngRegistry
WidgetDescription
p1362
(dp1363
g10
(lp1364
(iorngSignalManager
InputSignal
p1365
(dp1366
g14
S'Data Table'
p1367
sg16
I0
sg17
I2
sg18
S'self.processDF'
p1368
sg20
I0
sg21
S'RvarClasses.RDataFrame'
p1369
sbasg23
S'A table input data entry into a data.frame.'
p1370
sg25
S'Data Input'
p1371
sg27
(lp1372
(iorngSignalManager
OutputSignal
p1373
(dp1374
g16
I0
sg21
S'RvarClasses.RDataFrame'
p1375
sg14
S'Data Table'
p1376
sg20
I0
sbasg37
S'dataEntry'
p1377
sg39
S'/usr/lib/python2.6/dist-packages/Red-R/OrangeWidgets/widgets/dataEntry.py'
p1378
sg41
S'icons/File.png'
p1379
sg43
g2
sg14
S'Data Entry'
p1380
sg45
S"[('Data Table', 'RvarClasses.RDataFrame')]"
p1381
sg47
S"[('Data Table', 'RvarClasses.RDataFrame', 'self.processDF')]"
p1382
sg49
S'20'
p1383
sg51
S''
sg52
S'1269890322'
p1384
sg54
S'<b><b>&nbsp;Data Entry</b></b><hr><b>Description:</b><br>&nbsp;&nbsp;A table input data entry into a data.frame.<hr><b>Inputs:</b><br> &nbsp;&nbsp; - Data Table (RvarClasses.RDataFrame)<hr><b>Outputs:</b><br> &nbsp; &nbsp; - Data Table (RvarClasses.RDataFrame)'
p1385
sbstRp1386
(dp1387
S'directory'
p1388
S''
sbs.