(dp1
S'schemeIconSize'
p2
I1
sS'synchronizeHelp'
p3
I1
sS'focusOnCatchOutput'
p4
I0
sS'snapToGrid'
p5
I1
sS'saveSchemaDir'
p6
S'/usr/lib/python2.6/dist-packages/Red-R/settings/OrangeCanvasQt4'
p7
sS'printExceptionInStatusBar'
p8
I1
sS'owInfo'
p9
I1
sS'pos'
p10
csip
_unpickle_type
p11
(S'PyQt4.QtCore'
p12
S'QPoint'
(I308
I114
ttRp13
sS'outputVerbosity'
p14
I0
sS'widgetActiveColor'
p15
(I0
I0
I255
tp16
sS'dontAskBeforeClose'
p17
I1
sS'size'
p18
g11
(g12
S'QSize'
(I681
I568
ttRp19
sS'style'
p20
S'QtCurve'
p21
sS'owShow'
p22
I0
sS'canvasWidth'
p23
I700
sS'printOutputInStatusBar'
p24
I1
sS'toolboxWidth'
p25
I248
sS'useDefaultPalette'
p26
I0
sS'saveApplicationDir'
p27
g7
sS'iconSize'
p28
S'40 x 40'
p29
sS'canvasHeight'
p30
I600
sS'ocWarning'
p31
I1
sS'ocInfo'
p32
I1
sS'versionNumber'
p33
S'Version0'
p34
sS'ocError'
p35
I1
sS'showWidgetToolbar'
p36
I01
sS'focusOnCatchException'
p37
I1
sS'showToolbar'
p38
I01
sS'debugMode'
p39
I0
sS'showSignalNames'
p40
I1
sS'widgetSelectedColor'
p41
(I0
I255
I0
tp42
sS'useContexts'
p43
I1
sS'ocShow'
p44
I1
sS'writeLogFile'
p45
I1
sS'widgetXML'
p46
(ixml.dom.minidom
Document
p47
(dp48
S'implementation'
p49
(ixml.dom.minidom
DOMImplementation
p50
(dp51
bsS'_elem_info'
p52
(dp53
sS'doctype'
p54
NsS'_id_search_stack'
p55
NsS'childNodes'
p56
ccopy_reg
_reconstructor
p57
(cxml.dom.minicompat
NodeList
p58
c__builtin__
list
p59
(lp60
(ixml.dom.minidom
Element
p61
(dp62
S'ownerDocument'
p63
g47
sS'nodeName'
p64
Vtree
p65
sS'parentNode'
p66
g47
sS'namespaceURI'
p67
NsS'prefix'
p68
NsS'_attrsNS'
p69
(dp70
sS'tagName'
p71
g65
sg56
g57
(g58
g59
(lp72
(ixml.dom.minidom
Text
p73
(dp74
S'nextSibling'
p75
(ixml.dom.minidom
Element
p76
(dp77
g63
g47
sg64
Vgroup
p78
sg75
(ixml.dom.minidom
Text
p79
(dp80
S'data'
p81
V\u000a    
p82
sg75
(ixml.dom.minidom
Element
p83
(dp84
g63
g47
sg64
g78
sg75
(ixml.dom.minidom
Text
p85
(dp86
g81
V\u000a    
p87
sg75
(ixml.dom.minidom
Element
p88
(dp89
g63
g47
sg64
g78
sg75
(ixml.dom.minidom
Text
p90
(dp91
g81
V\u000a    
p92
sg75
(ixml.dom.minidom
Element
p93
(dp94
g63
g47
sg64
g78
sg75
(ixml.dom.minidom
Text
p95
(dp96
g81
V\u000a    
p97
sg75
(ixml.dom.minidom
Element
p98
(dp99
g63
g47
sg64
g78
sg75
(ixml.dom.minidom
Text
p100
(dp101
g81
V\u000a    
p102
sg75
(ixml.dom.minidom
Element
p103
(dp104
g63
g47
sg64
g78
sg75
(ixml.dom.minidom
Text
p105
(dp106
g81
V\u000a    
p107
sg75
(ixml.dom.minidom
Element
p108
(dp109
g63
g47
sg64
g78
sg75
(ixml.dom.minidom
Text
p110
(dp111
g81
V        \u000a    
p112
sg75
(ixml.dom.minidom
Element
p113
(dp114
g63
g47
sg64
g78
sg75
(ixml.dom.minidom
Text
p115
(dp116
S'previousSibling'
p117
g113
sg63
g47
sg81
V        \u000a
p118
sg66
g61
sS'nodeValue'
p119
g118
sbsg66
g61
sg67
Nsg68
Nsg69
(dp120
(NVname
p121
tp122
(ixml.dom.minidom
Attr
p123
(dp124
g63
g47
sg64
g121
sS'ownerElement'
p125
g113
sS'value'
p126
VPrototypes
p127
sg67
Nsg68
Nsg119
g127
sg56
g57
(g58
g59
(lp128
(ixml.dom.minidom
Text
p129
(dp130
g81
g127
sg119
g127
sbatRp131
(lp132
g129
absS'name'
p133
g121
sbssg71
g78
sg56
g57
(g58
g59
(lp134
(ixml.dom.minidom
Text
p135
(dp136
g75
(ixml.dom.minidom
Element
p137
(dp138
g63
g47
sg64
VDescription
p139
sg75
(ixml.dom.minidom
Text
p140
(dp141
g117
g137
sg63
g47
sg81
V\u000a    
p142
sg66
g113
sg119
g142
sbsg66
g113
sg67
Nsg68
Nsg69
(dp143
sg71
g139
sg56
g57
(g58
g59
(lp144
(ixml.dom.minidom
Text
p145
(dp146
g63
g47
sg81
VPrototypes
p147
sg66
g137
sg119
g147
sbatRp148
(lp149
g145
absg117
g135
sS'_attrs'
p150
(dp151
sbsg63
g47
sg81
V\u000a        
p152
sg66
g113
sg119
g152
sbag137
ag140
atRp153
(lp154
g135
ag137
ag140
absg117
g110
sg150
(dp155
g121
g123
ssbsg66
g61
sg119
g112
sg63
g47
sg117
g108
sbsg66
g61
sg67
Nsg68
Nsg69
(dp156
(Ng121
tp157
(ixml.dom.minidom
Attr
p158
(dp159
g63
g47
sg64
g121
sg125
g108
sg126
VFinance
p160
sg67
Nsg68
Nsg119
g160
sg56
g57
(g58
g59
(lp161
(ixml.dom.minidom
Text
p162
(dp163
g81
g160
sg119
g160
sbatRp164
(lp165
g162
absg133
g121
sbssg71
g78
sg56
g57
(g58
g59
(lp166
(ixml.dom.minidom
Text
p167
(dp168
g75
(ixml.dom.minidom
Element
p169
(dp170
g63
g47
sg64
g139
sg75
(ixml.dom.minidom
Text
p171
(dp172
g117
g169
sg63
g47
sg81
V\u000a    
p173
sg66
g108
sg119
g173
sbsg66
g108
sg67
Nsg68
Nsg69
(dp174
sg71
g139
sg56
g57
(g58
g59
(lp175
(ixml.dom.minidom
Text
p176
(dp177
g63
g47
sg81
VFinance
p178
sg66
g169
sg119
g178
sbatRp179
(lp180
g176
absg117
g167
sg150
(dp181
sbsg63
g47
sg81
V\u000a        
p182
sg66
g108
sg119
g182
sbag169
ag171
atRp183
(lp184
g167
ag169
ag171
absg117
g105
sg150
(dp185
g121
g158
ssbsg66
g61
sg119
g107
sg63
g47
sg117
g103
sbsg66
g61
sg67
Nsg68
Nsg69
(dp186
(Ng121
tp187
(ixml.dom.minidom
Attr
p188
(dp189
g63
g47
sg64
g121
sg125
g103
sg126
VBioinformatics
p190
sg67
Nsg68
Nsg119
g190
sg56
g57
(g58
g59
(lp191
(ixml.dom.minidom
Text
p192
(dp193
g81
g190
sg119
g190
sbatRp194
(lp195
g192
absg133
g121
sbssg71
g78
sg56
g57
(g58
g59
(lp196
(ixml.dom.minidom
Text
p197
(dp198
g75
(ixml.dom.minidom
Element
p199
(dp200
g63
g47
sg64
g139
sg75
(ixml.dom.minidom
Text
p201
(dp202
g81
V\u000a        
p203
sg75
(ixml.dom.minidom
Element
p204
(dp205
g63
g47
sg64
g78
sg75
(ixml.dom.minidom
Text
p206
(dp207
g81
V        \u000a        
p208
sg75
(ixml.dom.minidom
Element
p209
(dp210
g63
g47
sg64
g78
sg75
(ixml.dom.minidom
Text
p211
(dp212
g117
g209
sg63
g47
sg81
V        \u000a    
p213
sg66
g103
sg119
g213
sbsg66
g103
sg67
Nsg68
Nsg69
(dp214
(Ng121
tp215
(ixml.dom.minidom
Attr
p216
(dp217
g63
g47
sg64
g121
sg125
g209
sg126
VDose Response
p218
sg67
Nsg68
Nsg119
g218
sg56
g57
(g58
g59
(lp219
(ixml.dom.minidom
Text
p220
(dp221
g81
g218
sg119
g218
sbatRp222
(lp223
g220
absg133
g121
sbssg71
g78
sg56
g57
(g58
g59
(lp224
(ixml.dom.minidom
Text
p225
(dp226
g75
(ixml.dom.minidom
Element
p227
(dp228
g63
g47
sg64
g139
sg75
(ixml.dom.minidom
Text
p229
(dp230
g117
g227
sg63
g47
sg81
V\u000a        
p231
sg66
g209
sg119
g231
sbsg66
g209
sg67
Nsg68
Nsg69
(dp232
sg71
g139
sg56
g57
(g58
g59
(lp233
(ixml.dom.minidom
Text
p234
(dp235
g63
g47
sg81
VDose Response
p236
sg66
g227
sg119
g236
sbatRp237
(lp238
g234
absg117
g225
sg150
(dp239
sbsg63
g47
sg81
V\u000a            
p240
sg66
g209
sg119
g240
sbag227
ag229
atRp241
(lp242
g225
ag227
ag229
absg117
g206
sg150
(dp243
g121
g216
ssbsg66
g103
sg119
g208
sg63
g47
sg117
g204
sbsg66
g103
sg67
Nsg68
Nsg69
(dp244
(Ng121
tp245
(ixml.dom.minidom
Attr
p246
(dp247
g63
g47
sg64
g121
sg125
g204
sg126
VMicroarray
p248
sg67
Nsg68
Nsg119
g248
sg56
g57
(g58
g59
(lp249
(ixml.dom.minidom
Text
p250
(dp251
g81
g248
sg119
g248
sbatRp252
(lp253
g250
absg133
g121
sbssg71
g78
sg56
g57
(g58
g59
(lp254
(ixml.dom.minidom
Text
p255
(dp256
g75
(ixml.dom.minidom
Element
p257
(dp258
g63
g47
sg64
g139
sg75
(ixml.dom.minidom
Text
p259
(dp260
g117
g257
sg63
g47
sg81
V\u000a        
p261
sg66
g204
sg119
g261
sbsg66
g204
sg67
Nsg68
Nsg69
(dp262
sg71
g139
sg56
g57
(g58
g59
(lp263
(ixml.dom.minidom
Text
p264
(dp265
g63
g47
sg81
VMicroarray Analysis
p266
sg66
g257
sg119
g266
sbatRp267
(lp268
g264
absg117
g255
sg150
(dp269
sbsg63
g47
sg81
V\u000a            
p270
sg66
g204
sg119
g270
sbag257
ag259
atRp271
(lp272
g255
ag257
ag259
absg117
g201
sg150
(dp273
g121
g246
ssbsg66
g103
sg119
g203
sg63
g47
sg117
g199
sbsg66
g103
sg67
Nsg68
Nsg69
(dp274
sg71
g139
sg56
g57
(g58
g59
(lp275
(ixml.dom.minidom
Text
p276
(dp277
g63
g47
sg81
VApplication of information technology and computer science to the field of molecular biology
p278
sg66
g199
sg119
g278
sbatRp279
(lp280
g276
absg117
g197
sg150
(dp281
sbsg63
g47
sg81
V\u000a        
p282
sg66
g103
sg119
g282
sbag199
ag201
ag204
ag206
ag209
ag211
atRp283
(lp284
g197
ag199
ag201
ag204
ag206
ag209
ag211
absg117
g100
sg150
(dp285
g121
g188
ssbsg66
g61
sg119
g102
sg63
g47
sg117
g98
sbsg66
g61
sg67
Nsg68
Nsg69
(dp286
(Ng121
tp287
(ixml.dom.minidom
Attr
p288
(dp289
g63
g47
sg64
g121
sg125
g98
sg126
VStats
p290
sg67
Nsg68
Nsg119
g290
sg56
g57
(g58
g59
(lp291
(ixml.dom.minidom
Text
p292
(dp293
g81
g290
sg119
g290
sbatRp294
(lp295
g292
absg133
g121
sbssg71
g78
sg56
g57
(g58
g59
(lp296
(ixml.dom.minidom
Text
p297
(dp298
g75
(ixml.dom.minidom
Element
p299
(dp300
g63
g47
sg64
g139
sg75
(ixml.dom.minidom
Text
p301
(dp302
g81
V\u000a        
p303
sg75
(ixml.dom.minidom
Element
p304
(dp305
g63
g47
sg64
g78
sg75
(ixml.dom.minidom
Text
p306
(dp307
g81
V\u000a        
p308
sg75
(ixml.dom.minidom
Element
p309
(dp310
g63
g47
sg64
g78
sg75
(ixml.dom.minidom
Text
p311
(dp312
g81
V\u000a        
p313
sg75
(ixml.dom.minidom
Element
p314
(dp315
g63
g47
sg64
g78
sg75
(ixml.dom.minidom
Text
p316
(dp317
g117
g314
sg63
g47
sg81
V        \u000a    
p318
sg66
g98
sg119
g318
sbsg66
g98
sg67
Nsg68
Nsg69
(dp319
(Ng121
tp320
(ixml.dom.minidom
Attr
p321
(dp322
g63
g47
sg64
g121
sg125
g314
sg126
VSurvival
p323
sg67
Nsg68
Nsg119
g323
sg56
g57
(g58
g59
(lp324
(ixml.dom.minidom
Text
p325
(dp326
g81
g323
sg119
g323
sbatRp327
(lp328
g325
absg133
g121
sbssg71
g78
sg56
g57
(g58
g59
(lp329
(ixml.dom.minidom
Text
p330
(dp331
g75
(ixml.dom.minidom
Element
p332
(dp333
g63
g47
sg64
g139
sg75
(ixml.dom.minidom
Text
p334
(dp335
g117
g332
sg63
g47
sg81
V\u000a        
p336
sg66
g314
sg119
g336
sbsg66
g314
sg67
Nsg68
Nsg69
(dp337
sg71
g139
sg56
g57
(g58
g59
(lp338
(ixml.dom.minidom
Text
p339
(dp340
g63
g47
sg81
VSurvival Statistics
p341
sg66
g332
sg119
g341
sbatRp342
(lp343
g339
absg117
g330
sg150
(dp344
sbsg63
g47
sg81
V\u000a            
p345
sg66
g314
sg119
g345
sbag332
ag334
atRp346
(lp347
g330
ag332
ag334
absg117
g311
sg150
(dp348
g121
g321
ssbsg66
g98
sg119
g313
sg63
g47
sg117
g309
sbsg66
g98
sg67
Nsg68
Nsg69
(dp349
(Ng121
tp350
(ixml.dom.minidom
Attr
p351
(dp352
g63
g47
sg64
g121
sg125
g309
sg126
VNon Parametric
p353
sg67
Nsg68
Nsg119
g353
sg56
g57
(g58
g59
(lp354
(ixml.dom.minidom
Text
p355
(dp356
g81
g353
sg119
g353
sbatRp357
(lp358
g355
absg133
g121
sbssg71
g78
sg56
g57
(g58
g59
(lp359
(ixml.dom.minidom
Text
p360
(dp361
g75
(ixml.dom.minidom
Element
p362
(dp363
g63
g47
sg64
g139
sg75
(ixml.dom.minidom
Text
p364
(dp365
g117
g362
sg63
g47
sg81
V\u000a        
p366
sg66
g309
sg119
g366
sbsg66
g309
sg67
Nsg68
Nsg69
(dp367
sg71
g139
sg56
g57
(g58
g59
(lp368
(ixml.dom.minidom
Text
p369
(dp370
g63
g47
sg81
VNon-Parametric Statistics
p371
sg66
g362
sg119
g371
sbatRp372
(lp373
g369
absg117
g360
sg150
(dp374
sbsg63
g47
sg81
V\u000a            
p375
sg66
g309
sg119
g375
sbag362
ag364
atRp376
(lp377
g360
ag362
ag364
absg117
g306
sg150
(dp378
g121
g351
ssbsg66
g98
sg119
g308
sg63
g47
sg117
g304
sbsg66
g98
sg67
Nsg68
Nsg69
(dp379
(Ng121
tp380
(ixml.dom.minidom
Attr
p381
(dp382
g63
g47
sg64
g121
sg125
g304
sg126
VParametric
p383
sg67
Nsg68
Nsg119
g383
sg56
g57
(g58
g59
(lp384
(ixml.dom.minidom
Text
p385
(dp386
g81
g383
sg119
g383
sbatRp387
(lp388
g385
absg133
g121
sbssg71
g78
sg56
g57
(g58
g59
(lp389
(ixml.dom.minidom
Text
p390
(dp391
g75
(ixml.dom.minidom
Element
p392
(dp393
g63
g47
sg64
g139
sg75
(ixml.dom.minidom
Text
p394
(dp395
g117
g392
sg63
g47
sg81
V\u000a        
p396
sg66
g304
sg119
g396
sbsg66
g304
sg67
Nsg68
Nsg69
(dp397
sg71
g139
sg56
g57
(g58
g59
(lp398
(ixml.dom.minidom
Text
p399
(dp400
g63
g47
sg81
VParametric Statistics
p401
sg66
g392
sg119
g401
sbatRp402
(lp403
g399
absg117
g390
sg150
(dp404
sbsg63
g47
sg81
V\u000a            
p405
sg66
g304
sg119
g405
sbag392
ag394
atRp406
(lp407
g390
ag392
ag394
absg117
g301
sg150
(dp408
g121
g381
ssbsg66
g98
sg119
g303
sg63
g47
sg117
g299
sbsg66
g98
sg67
Nsg68
Nsg69
(dp409
sg71
g139
sg56
g57
(g58
g59
(lp410
(ixml.dom.minidom
Text
p411
(dp412
g63
g47
sg81
VStatistics
p413
sg66
g299
sg119
g413
sbatRp414
(lp415
g411
absg117
g297
sg150
(dp416
sbsg63
g47
sg81
V\u000a        
p417
sg66
g98
sg119
g417
sbag299
ag301
ag304
ag306
ag309
ag311
ag314
ag316
atRp418
(lp419
g297
ag299
ag301
ag304
ag306
ag309
ag311
ag314
ag316
absg117
g95
sg150
(dp420
g121
g288
ssbsg66
g61
sg119
g97
sg63
g47
sg117
g93
sbsg66
g61
sg67
Nsg68
Nsg69
(dp421
(Ng121
tp422
(ixml.dom.minidom
Attr
p423
(dp424
g63
g47
sg64
g121
sg125
g93
sg126
VPlotting
p425
sg67
Nsg68
Nsg119
g425
sg56
g57
(g58
g59
(lp426
(ixml.dom.minidom
Text
p427
(dp428
g81
g425
sg119
g425
sbatRp429
(lp430
g427
absg133
g121
sbssg71
g78
sg56
g57
(g58
g59
(lp431
(ixml.dom.minidom
Text
p432
(dp433
g75
(ixml.dom.minidom
Element
p434
(dp435
g63
g47
sg64
g139
sg75
(ixml.dom.minidom
Text
p436
(dp437
g117
g434
sg63
g47
sg81
V\u000a    
p438
sg66
g93
sg119
g438
sbsg66
g93
sg67
Nsg68
Nsg69
(dp439
sg71
g139
sg56
g57
(g58
g59
(lp440
(ixml.dom.minidom
Text
p441
(dp442
g63
g47
sg81
VVisualizing Data
p443
sg66
g434
sg119
g443
sbatRp444
(lp445
g441
absg117
g432
sg150
(dp446
sbsg63
g47
sg81
V\u000a        
p447
sg66
g93
sg119
g447
sbag434
ag436
atRp448
(lp449
g432
ag434
ag436
absg117
g90
sg150
(dp450
g121
g423
ssbsg66
g61
sg119
g92
sg63
g47
sg117
g88
sbsg66
g61
sg67
Nsg68
Nsg69
(dp451
(Ng121
tp452
(ixml.dom.minidom
Attr
p453
(dp454
g63
g47
sg64
g121
sg125
g88
sg126
VR
sg67
Nsg68
Nsg119
VR
sg56
g57
(g58
g59
(lp455
(ixml.dom.minidom
Text
p456
(dp457
g81
VR
sg119
VR
sbatRp458
(lp459
g456
absg133
g121
sbssg71
g78
sg56
g57
(g58
g59
(lp460
(ixml.dom.minidom
Text
p461
(dp462
g75
(ixml.dom.minidom
Element
p463
(dp464
g63
g47
sg64
g139
sg75
(ixml.dom.minidom
Text
p465
(dp466
g117
g463
sg63
g47
sg81
V\u000a    
p467
sg66
g88
sg119
g467
sbsg66
g88
sg67
Nsg68
Nsg69
(dp468
sg71
g139
sg56
g57
(g58
g59
(lp469
(ixml.dom.minidom
Text
p470
(dp471
g63
g47
sg81
VSpecial Widgets for Interfacing with R
p472
sg66
g463
sg119
g472
sbatRp473
(lp474
g470
absg117
g461
sg150
(dp475
sbsg63
g47
sg81
V\u000a        
p476
sg66
g88
sg119
g476
sbag463
ag465
atRp477
(lp478
g461
ag463
ag465
absg117
g85
sg150
(dp479
g121
g453
ssbsg66
g61
sg119
g87
sg63
g47
sg117
g83
sbsg66
g61
sg67
Nsg68
Nsg69
(dp480
(Ng121
tp481
(ixml.dom.minidom
Attr
p482
(dp483
g63
g47
sg64
g121
sg125
g83
sg126
VData Manipulation
p484
sg67
Nsg68
Nsg119
g484
sg56
g57
(g58
g59
(lp485
(ixml.dom.minidom
Text
p486
(dp487
g81
g484
sg119
g484
sbatRp488
(lp489
g486
absg133
g121
sbssg71
g78
sg56
g57
(g58
g59
(lp490
(ixml.dom.minidom
Text
p491
(dp492
g75
(ixml.dom.minidom
Element
p493
(dp494
g63
g47
sg64
g139
sg75
(ixml.dom.minidom
Text
p495
(dp496
g117
g493
sg63
g47
sg81
V\u000a    
p497
sg66
g83
sg119
g497
sbsg66
g83
sg67
Nsg68
Nsg69
(dp498
sg71
g139
sg56
g57
(g58
g59
(lp499
(ixml.dom.minidom
Text
p500
(dp501
g63
g47
sg81
VWidgets for data manipulation
p502
sg66
g493
sg119
g502
sbatRp503
(lp504
g500
absg117
g491
sg150
(dp505
sbsg63
g47
sg81
V\u000a        
p506
sg66
g83
sg119
g506
sbag493
ag495
atRp507
(lp508
g491
ag493
ag495
absg117
g79
sg150
(dp509
g121
g482
ssbsg66
g61
sg119
g82
sg63
g47
sg117
g76
sbsg66
g61
sg67
Nsg68
Nsg69
(dp510
(Ng121
tp511
(ixml.dom.minidom
Attr
p512
(dp513
g63
g47
sg64
g121
sg125
g76
sg126
VData Input
p514
sg67
Nsg68
Nsg119
g514
sg56
g57
(g58
g59
(lp515
(ixml.dom.minidom
Text
p516
(dp517
g81
g514
sg119
g514
sbatRp518
(lp519
g516
absg133
g121
sbssg71
g78
sg56
g57
(g58
g59
(lp520
(ixml.dom.minidom
Text
p521
(dp522
g75
(ixml.dom.minidom
Element
p523
(dp524
g63
g47
sg64
g139
sg75
(ixml.dom.minidom
Text
p525
(dp526
g117
g523
sg63
g47
sg81
V\u000a    
p527
sg66
g76
sg119
g527
sbsg66
g76
sg67
Nsg68
Nsg69
(dp528
sg71
g139
sg56
g57
(g58
g59
(lp529
(ixml.dom.minidom
Text
p530
(dp531
g63
g47
sg81
VWidgets for Importing data into redR
p532
sg66
g523
sg119
g532
sbatRp533
(lp534
g530
absg117
g521
sg150
(dp535
sbsg63
g47
sg81
V\u000a        
p536
sg66
g76
sg119
g536
sbag523
ag525
atRp537
(lp538
g521
ag523
ag525
absg117
g73
sg150
(dp539
g121
g512
ssbsg63
g47
sg81
V\u000a    
p540
sg66
g61
sg119
g540
sbag76
ag79
ag83
ag85
ag88
ag90
ag93
ag95
ag98
ag100
ag103
ag105
ag108
ag110
ag113
ag115
atRp541
(lp542
g73
ag76
ag79
ag83
ag85
ag88
ag90
ag93
ag95
ag98
ag100
ag103
ag105
ag108
ag110
ag113
ag115
absg150
(dp543
sbatRp544
(lp545
g61
absS'_id_cache'
p546
(dp547
sbsS'widgetListType'
p548
I3
sS'outputWindowPos'
p549
(I500
I500
I0
I0
tp550
sS'WidgetTabs'
p551
(lp552
(S'Data'
csip
_unpickle_enum
p553
(g12
S'CheckState'
I2
tRp554
tp555
a(S'Visualize'
g554
tp556
a(S'Classify'
g554
tp557
a(S'Regression'
g554
tp558
a(S'Evaluate'
g554
tp559
a(S'Unsupervised'
g554
tp560
a(S'Associate'
g554
tp561
a(S'Text'
g554
tp562
a(S'Genomics'
g554
tp563
a(S'Prototypes'
g554
tp564
a(S'widgets'
I1
tp565
asS'owWarning'
p566
I1
sS'windowState'
p567
g11
(g12
S'QByteArray'
(S'\x00\x00\x00\xff\x00\x00\x00\x00\xfd\x00\x00\x00\x01\x00\x00\x00\x00\x00\x00\x01\x0c\x00\x00\x01\xe5\xfc\x02\x00\x00\x00\x01\xfb\x00\x00\x00\x14\x00w\x00i\x00d\x00g\x00e\x00t\x00D\x00o\x00c\x00k\x03\x00\x00\x00\x00\x00\x00\x00U\x00\x00\x01\x14\x00\x00\x01\x07\x00\x00\x02\xa9\x00\x00\x01\xe5\x00\x00\x00\x04\x00\x00\x00\x04\x00\x00\x00\x08\x00\x00\x00\x08\xfc\x00\x00\x00\x02\x00\x00\x00\x02\x00\x00\x00\x01\xff\xff\xff\xff\x01\x00\x00\x00\x00\xff\xff\xff\xff\x00\x00\x00\x00\x00\x00\x00\x00\x00\x00\x00\x02\x00\x00\x00\x00'
ttRp568
sS'geometry'
p569
g11
(g12
S'QByteArray'
(S'\x01\xd9\xd0\xcb\x00\x01\x00\x00\x00\x00\x014\x00\x00\x00r\x00\x00\x03\xe4\x00\x00\x02\xca\x00\x00\x018\x00\x00\x00\x8f\x00\x00\x03\xe0\x00\x00\x02\xc6\x00\x00\x00\x00\x00\x00'
ttRp570
sS'saveWidgetsPosition'
p571
I1
sS'lineColor'
p572
(I0
I255
I0
tp573
sS'svnSettings'
p574
NsS'toolbarIconSize'
p575
I2
sS'owError'
p576
I1
s.